EXPORTS 
	??_R0?AV?$_Iosb@H@std@@@8 	 DATA
	??_R0?AV?$basic_ios@DU?$char_traits@D@std@@@std@@@8 	 DATA
	??_R0?AV?$basic_ostream@DU?$char_traits@D@std@@@std@@@8 	 DATA
	??_R0?AV?$basic_ostringstream@DU?$char_traits@D@std@@V?$allocator@D@2@@std@@@8 	 DATA
	??_R0?AV?$basic_streambuf@DU?$char_traits@D@std@@@std@@@8 	 DATA
	??_R0?AV?$basic_stringbuf@DU?$char_traits@D@std@@V?$allocator@D@2@@std@@@8 	 DATA
	??_R0?AVMidiApi@@@8 	 DATA
	??_R0?AVMidiInApi@@@8 	 DATA
	??_R0?AVMidiInWinMM@@@8 	 DATA
	??_R0?AVMidiOutApi@@@8 	 DATA
	??_R0?AVMidiOutWinMM@@@8 	 DATA
	??_R0?AVRtMidi@@@8 	 DATA
	??_R0?AVRtMidiError@@@8 	 DATA
	??_R0?AVRtMidiIn@@@8 	 DATA
	??_R0?AVRtMidiOut@@@8 	 DATA
	??_R0?AVbad_alloc@std@@@8 	 DATA
	??_R0?AVbad_array_new_length@std@@@8 	 DATA
	??_R0?AVexception@std@@@8 	 DATA
	??_R0?AVios_base@std@@@8 	 DATA
	?_OptionsStorage@?1??__local_stdio_printf_options@@9@4_KA 	 DATA
	rtmidi_api_names 	 DATA
	??$?0$$V@?$_Compressed_pair@V?$allocator@D@std@@V?$_String_val@U?$_Simple_types@D@std@@@2@$00@std@@QEAA@U_Zero_then_variadic_args_t@1@@Z
	??$?0$$V@?$_Compressed_pair@V?$allocator@E@std@@V?$_Vector_val@U?$_Simple_types@E@std@@@2@$00@std@@QEAA@U_Zero_then_variadic_args_t@1@@Z
	??$?0$$V@?$_Compressed_pair@V?$allocator@PEAUmidihdr_tag@@@std@@V?$_Vector_val@U?$_Simple_types@PEAUmidihdr_tag@@@std@@@2@$00@std@@QEAA@U_Zero_then_variadic_args_t@1@@Z
	??$?0$$V@?$_Compressed_pair@V?$allocator@W4Api@RtMidi@@@std@@V?$_Vector_val@U?$_Simple_types@W4Api@RtMidi@@@std@@@2@$00@std@@QEAA@U_Zero_then_variadic_args_t@1@@Z
	??$?0$$V@?$_Compressed_pair@V?$allocator@_W@std@@V?$_String_val@U?$_Simple_types@_W@std@@@2@$00@std@@QEAA@U_Zero_then_variadic_args_t@1@@Z
	??$?0AEBV?$allocator@D@std@@$$V@?$_Compressed_pair@V?$allocator@D@std@@V?$_String_val@U?$_Simple_types@D@std@@@2@$00@std@@QEAA@U_One_then_variadic_args_t@1@AEBV?$allocator@D@1@@Z
	??$?0AEBV?$allocator@E@std@@$$V@?$_Compressed_pair@V?$allocator@E@std@@V?$_Vector_val@U?$_Simple_types@E@std@@@2@$00@std@@QEAA@U_One_then_variadic_args_t@1@AEBV?$allocator@E@1@@Z
	??$?0AEBV?$allocator@W4Api@RtMidi@@@std@@$$V@?$_Compressed_pair@V?$allocator@W4Api@RtMidi@@@std@@V?$_Vector_val@U?$_Simple_types@W4Api@RtMidi@@@std@@@2@$00@std@@QEAA@U_One_then_variadic_args_t@1@AEBV?$allocator@W4Api@RtMidi@@@1@@Z
	??$?0D@?$allocator@U_Container_proxy@std@@@std@@QEAA@AEBV?$allocator@D@1@@Z
	??$?0E@?$allocator@U_Container_proxy@std@@@std@@QEAA@AEBV?$allocator@E@1@@Z
	??$?0PEAUmidihdr_tag@@@?$allocator@U_Container_proxy@std@@@std@@QEAA@AEBV?$allocator@PEAUmidihdr_tag@@@1@@Z
	??$?0PEBW4Api@RtMidi@@$0A@@?$vector@W4Api@RtMidi@@V?$allocator@W4Api@RtMidi@@@std@@@std@@QEAA@PEBW4Api@RtMidi@@0AEBV?$allocator@W4Api@RtMidi@@@1@@Z
	??$?0V?$allocator@D@std@@$$V@?$_Compressed_pair@V?$allocator@D@std@@V?$_String_val@U?$_Simple_types@D@std@@@2@$00@std@@QEAA@U_One_then_variadic_args_t@1@$$QEAV?$allocator@D@1@@Z
	??$?0V?$allocator@E@std@@$$V@?$_Compressed_pair@V?$allocator@E@std@@V?$_Vector_val@U?$_Simple_types@E@std@@@2@$00@std@@QEAA@U_One_then_variadic_args_t@1@$$QEAV?$allocator@E@1@@Z
	??$?0W4Api@RtMidi@@@?$allocator@U_Container_proxy@std@@@std@@QEAA@AEBV?$allocator@W4Api@RtMidi@@@1@@Z
	??$?0_W@?$allocator@U_Container_proxy@std@@@std@@QEAA@AEBV?$allocator@_W@1@@Z
	??$?6DU?$char_traits@D@std@@V?$allocator@D@1@@std@@YAAEAV?$basic_ostream@DU?$char_traits@D@std@@@0@AEAV10@AEBV?$basic_string@DU?$char_traits@D@std@@V?$allocator@D@2@@0@@Z
	??$?6U?$char_traits@D@std@@@std@@YAAEAV?$basic_ostream@DU?$char_traits@D@std@@@0@AEAV10@D@Z
	??$?6U?$char_traits@D@std@@@std@@YAAEAV?$basic_ostream@DU?$char_traits@D@std@@@0@AEAV10@PEBD@Z
	??$?8DU?$char_traits@D@std@@V?$allocator@D@1@@std@@YA_NAEBV?$basic_string@DU?$char_traits@D@std@@V?$allocator@D@2@@0@QEBD@Z
	??$_Adl_verify_range@PEBW4Api@RtMidi@@PEBW412@@std@@YAXAEBQEBW4Api@RtMidi@@0@Z
	??$_Adl_verify_range@V?$_Vector_iterator@V?$_Vector_val@U?$_Simple_types@E@std@@@std@@@std@@V12@@std@@YAXAEBV?$_Vector_iterator@V?$_Vector_val@U?$_Simple_types@E@std@@@std@@@0@0@Z
	??$_Alloc_proxy@V?$allocator@U_Container_proxy@std@@@std@@@_Container_base12@std@@QEAAX$$QEAV?$allocator@U_Container_proxy@std@@@1@@Z
	??$_Allocate@$0BA@U_Default_allocate_traits@std@@$0A@@std@@YAPEAX_K@Z
	??$_Allocate_at_least_helper@V?$allocator@D@std@@@std@@YAPEADAEAV?$allocator@D@0@AEA_K@Z
	??$_Allocate_at_least_helper@V?$allocator@E@std@@@std@@YAPEAEAEAV?$allocator@E@0@AEA_K@Z
	??$_Allocate_at_least_helper@V?$allocator@PEAUmidihdr_tag@@@std@@@std@@YAPEAPEAUmidihdr_tag@@AEAV?$allocator@PEAUmidihdr_tag@@@0@AEA_K@Z
	??$_Allocate_at_least_helper@V?$allocator@W4Api@RtMidi@@@std@@@std@@YAPEAW4Api@RtMidi@@AEAV?$allocator@W4Api@RtMidi@@@0@AEA_K@Z
	??$_Allocate_at_least_helper@V?$allocator@_W@std@@@std@@YAPEA_WAEAV?$allocator@_W@0@AEA_K@Z
	??$_Allocate_for_capacity@$0A@@?$basic_string@DU?$char_traits@D@std@@V?$allocator@D@2@@std@@CAPEADAEAV?$allocator@D@1@AEA_K@Z
	??$_Allocate_for_capacity@$0A@@?$basic_string@_WU?$char_traits@_W@std@@V?$allocator@_W@2@@std@@CAPEA_WAEAV?$allocator@_W@1@AEA_K@Z
	??$_Allocate_manually_vector_aligned@U_Default_allocate_traits@std@@@std@@YAPEAX_K@Z
	??$_Assign_counted_range@PEAE@?$vector@EV?$allocator@E@std@@@std@@AEAAXPEAE_K@Z
	??$_Construct@$00PEBD@?$basic_string@DU?$char_traits@D@std@@V?$allocator@D@2@@std@@AEAAXQEBD_K@Z
	??$_Construct@$01PEBD@?$basic_string@DU?$char_traits@D@std@@V?$allocator@D@2@@std@@AEAAXQEBD_K@Z
	??$_Construct_in_place@EAEBE@std@@YAXAEAEAEBE@Z
	??$_Construct_in_place@EE@std@@YAXAEAE$$QEAE@Z
	??$_Construct_in_place@PEADAEAPEAD@std@@YAXAEAPEAD0@Z
	??$_Construct_in_place@PEADAEBQEAD@std@@YAXAEAPEADAEBQEAD@Z
	??$_Construct_in_place@PEA_WAEBQEA_W@std@@YAXAEAPEA_WAEBQEA_W@Z
	??$_Construct_in_place@U_Container_proxy@std@@PEAU_Container_base12@2@@std@@YAXAEAU_Container_proxy@0@$$QEAPEAU_Container_base12@0@@Z
	??$_Construct_n@$$V@?$vector@EV?$allocator@E@std@@@std@@AEAAX_K@Z
	??$_Construct_n@AEBQEAEAEBQEAE@?$vector@EV?$allocator@E@std@@@std@@AEAAX_KAEBQEAE1@Z
	??$_Construct_n@PEBW4Api@RtMidi@@PEBW412@@?$vector@W4Api@RtMidi@@V?$allocator@W4Api@RtMidi@@@std@@@std@@AEAAX_K$$QEAPEBW4Api@RtMidi@@1@Z
	??$_Convert_size@_K_K@std@@YA_K_K@Z
	??$_Copy_memmove@PEAEPEAE@std@@YAPEAEPEAE00@Z
	??$_Copy_memmove@PEAPEAUmidihdr_tag@@PEAPEAU1@@std@@YAPEAPEAUmidihdr_tag@@PEAPEAU1@00@Z
	??$_Copy_memmove@PEBW4Api@RtMidi@@PEAW412@@std@@YAPEAW4Api@RtMidi@@PEBW412@0PEAW412@@Z
	??$_Copy_memmove_n@PEAEPEAE@std@@YAPEAEPEAE_K0@Z
	??$_Copy_n_unchecked4@PEAE_KPEAE@std@@YAPEAEPEAE_K0@Z
	??$_Deallocate@$0BA@$0A@@std@@YAXPEAX_K@Z
	??$_Deallocate_plain@V?$allocator@U_Container_proxy@std@@@std@@@std@@YAXAEAV?$allocator@U_Container_proxy@std@@@0@QEAU_Container_proxy@0@@Z
	??$_Delete_plain_internal@V?$allocator@U_Container_proxy@std@@@std@@@std@@YAXAEAV?$allocator@U_Container_proxy@std@@@0@QEAU_Container_proxy@0@@Z
	??$_Destroy_in_place@PEAD@std@@YAXAEAPEAD@Z
	??$_Destroy_in_place@PEA_W@std@@YAXAEAPEA_W@Z
	??$_Destroy_range@V?$allocator@E@std@@@std@@YAXPEAEQEAEAEAV?$allocator@E@0@@Z
	??$_Destroy_range@V?$allocator@PEAUmidihdr_tag@@@std@@@std@@YAXPEAPEAUmidihdr_tag@@QEAPEAU1@AEAV?$allocator@PEAUmidihdr_tag@@@0@@Z
	??$_Destroy_range@V?$allocator@W4Api@RtMidi@@@std@@@std@@YAXPEAW4Api@RtMidi@@QEAW412@AEAV?$allocator@W4Api@RtMidi@@@0@@Z
	??$_Emplace_back@$$V@?$_Uninitialized_backout_al@V?$allocator@E@std@@@std@@QEAAXXZ
	??$_Emplace_back@$$V@?$_Uninitialized_backout_al@V?$allocator@PEAUmidihdr_tag@@@std@@@std@@QEAAXXZ
	??$_Emplace_back@AEAE@?$_Uninitialized_backout_al@V?$allocator@E@std@@@std@@QEAAXAEAE@Z
	??$_Emplace_back@AEBW4Api@RtMidi@@@?$_Uninitialized_backout_al@V?$allocator@W4Api@RtMidi@@@std@@@std@@QEAAXAEBW4Api@RtMidi@@@Z
	??$_Emplace_back@E@?$_Uninitialized_backout_al@V?$allocator@E@std@@@std@@QEAAX$$QEAE@Z
	??$_Emplace_back@PEAUmidihdr_tag@@@?$_Uninitialized_backout_al@V?$allocator@PEAUmidihdr_tag@@@std@@@std@@QEAAX$$QEAPEAUmidihdr_tag@@@Z
	??$_Emplace_back_with_unused_capacity@AEBE@?$vector@EV?$allocator@E@std@@@std@@AEAAAEAEAEBE@Z
	??$_Emplace_back_with_unused_capacity@E@?$vector@EV?$allocator@E@std@@@std@@AEAAAEAE$$QEAE@Z
	??$_Emplace_one_at_back@AEBE@?$vector@EV?$allocator@E@std@@@std@@AEAAAEAEAEBE@Z
	??$_Emplace_one_at_back@E@?$vector@EV?$allocator@E@std@@@std@@AEAAAEAE$$QEAE@Z
	??$_Emplace_reallocate@AEBE@?$vector@EV?$allocator@E@std@@@std@@AEAAPEAEQEAEAEBE@Z
	??$_Emplace_reallocate@E@?$vector@EV?$allocator@E@std@@@std@@AEAAPEAEQEAE$$QEAE@Z
	??$_Get_size_of_n@$00@std@@YA_K_K@Z
	??$_Get_size_of_n@$01@std@@YA_K_K@Z
	??$_Get_size_of_n@$03@std@@YA_K_K@Z
	??$_Get_size_of_n@$07@std@@YA_K_K@Z
	??$_Get_size_of_n@$0BA@@std@@YA_K_K@Z
	??$_Get_unwrapped@AEAPEBW4Api@RtMidi@@@std@@YA?A_TAEAPEBW4Api@RtMidi@@@Z
	??$_Get_unwrapped@AEAV?$_Vector_iterator@V?$_Vector_val@U?$_Simple_types@E@std@@@std@@@std@@@std@@YA?A_TAEAV?$_Vector_iterator@V?$_Vector_val@U?$_Simple_types@E@std@@@std@@@0@@Z
	??$_Get_unwrapped@AEBQEAE@std@@YA?A_TAEBQEAE@Z
	??$_Get_unwrapped@AEBQEAPEAUmidihdr_tag@@@std@@YA?A_TAEBQEAPEAUmidihdr_tag@@@Z
	??$_Get_unwrapped@PEAE@std@@YA?A_T$$QEAPEAE@Z
	??$_Get_unwrapped@PEBW4Api@RtMidi@@@std@@YA?A_T$$QEAPEBW4Api@RtMidi@@@Z
	??$_Insert_string@DU?$char_traits@D@std@@_K@std@@YAAEAV?$basic_ostream@DU?$char_traits@D@std@@@0@AEAV10@QEBD_K@Z
	??$_Pocca@V?$allocator@D@std@@@std@@YAXAEAV?$allocator@D@0@AEBV10@@Z
	??$_Pocca@V?$allocator@E@std@@@std@@YAXAEAV?$allocator@E@0@AEBV10@@Z
	??$_Pocma@V?$allocator@D@std@@@std@@YAXAEAV?$allocator@D@0@0@Z
	??$_Pocma@V?$allocator@W4Api@RtMidi@@@std@@@std@@YAXAEAV?$allocator@W4Api@RtMidi@@@0@0@Z
	??$_Reallocate_for@V<lambda_138c3d7c38c85abb84c7fc7bfe5747b7>@@D@?$basic_string@DU?$char_traits@D@std@@V?$allocator@D@2@@std@@AEAAAEAV01@_KV<lambda_138c3d7c38c85abb84c7fc7bfe5747b7>@@D@Z
	??$_Reallocate_for@V<lambda_66f57f934f28d61049862f64df852ff0>@@PEBD@?$basic_string@DU?$char_traits@D@std@@V?$allocator@D@2@@std@@AEAAAEAV01@_KV<lambda_66f57f934f28d61049862f64df852ff0>@@PEBD@Z
	??$_Reallocate_for@V<lambda_b316f76599580dcfa601a433435bf0fe>@@_W@?$basic_string@_WU?$char_traits@_W@std@@V?$allocator@_W@2@@std@@AEAAAEAV01@_KV<lambda_b316f76599580dcfa601a433435bf0fe>@@_W@Z
	??$_Reallocate_grow_by@V<lambda_65e615be2a453ca0576c979606f46740>@@PEBD_K@?$basic_string@DU?$char_traits@D@std@@V?$allocator@D@2@@std@@AEAAAEAV01@_KV<lambda_65e615be2a453ca0576c979606f46740>@@PEBD_K@Z
	??$_Resize@U_Value_init_tag@std@@@?$vector@PEAUmidihdr_tag@@V?$allocator@PEAUmidihdr_tag@@@std@@@std@@AEAAX_KAEBU_Value_init_tag@1@@Z
	??$_Resize_reallocate@U_Value_init_tag@std@@@?$vector@PEAUmidihdr_tag@@V?$allocator@PEAUmidihdr_tag@@@std@@@std@@AEAAX_KAEBU_Value_init_tag@1@@Z
	??$_To_address@PEAE@std@@YA?A_PAEBQEAE@Z
	??$_To_address@PEAPEAUmidihdr_tag@@@std@@YA?A_PAEBQEAPEAUmidihdr_tag@@@Z
	??$_To_address@PEAW4Api@RtMidi@@@std@@YA?A_PAEBQEAW4Api@RtMidi@@@Z
	??$_To_address@PEBW4Api@RtMidi@@@std@@YA?A_PAEBQEBW4Api@RtMidi@@@Z
	??$_Traits_equal@U?$char_traits@D@std@@@std@@YA_NQEBD_K01@Z
	??$_Unfancy@D@std@@YAPEADPEAD@Z
	??$_Unfancy@E@std@@YAPEAEPEAE@Z
	??$_Unfancy@PEAUmidihdr_tag@@@std@@YAPEAPEAUmidihdr_tag@@PEAPEAU1@@Z
	??$_Unfancy@U_Container_proxy@std@@@std@@YAPEAU_Container_proxy@0@PEAU10@@Z
	??$_Unfancy@W4Api@RtMidi@@@std@@YAPEAW4Api@RtMidi@@PEAW412@@Z
	??$_Unfancy@_W@std@@YAPEA_WPEA_W@Z
	??$_Unfancy_maybe_null@E@std@@YAPEAEPEAE@Z
	??$_Uninitialized_copy@PEAEPEAEV?$allocator@E@std@@@std@@YAPEAEPEAE00AEAV?$allocator@E@0@@Z
	??$_Uninitialized_copy@PEBW4Api@RtMidi@@PEBW412@V?$allocator@W4Api@RtMidi@@@std@@@std@@YAPEAW4Api@RtMidi@@PEBW412@0PEAW412@AEAV?$allocator@W4Api@RtMidi@@@0@@Z
	??$_Uninitialized_copy_n@PEAEV?$allocator@E@std@@@std@@YAPEAEPEAE_K0AEAV?$allocator@E@0@@Z
	??$_Uninitialized_move@PEAEV?$allocator@E@std@@@std@@YAPEAEQEAE0PEAEAEAV?$allocator@E@0@@Z
	??$_Uninitialized_move@PEAPEAUmidihdr_tag@@V?$allocator@PEAUmidihdr_tag@@@std@@@std@@YAPEAPEAUmidihdr_tag@@QEAPEAU1@0PEAPEAU1@AEAV?$allocator@PEAUmidihdr_tag@@@0@@Z
	??$_Uninitialized_value_construct_n@V?$allocator@E@std@@@std@@YAPEAEPEAE_KAEAV?$allocator@E@0@@Z
	??$_Uninitialized_value_construct_n@V?$allocator@PEAUmidihdr_tag@@@std@@@std@@YAPEAPEAUmidihdr_tag@@PEAPEAU1@_KAEAV?$allocator@PEAUmidihdr_tag@@@0@@Z
	??$_Verify_range@W4Api@RtMidi@@@std@@YAXQEBW4Api@RtMidi@@0@Z
	??$_Zero_range@PEAE@std@@YAPEAEQEAE0@Z
	??$_Zero_range@PEAPEAUmidihdr_tag@@@std@@YAPEAPEAUmidihdr_tag@@QEAPEAU1@0@Z
	??$addressof@$$CBV?$basic_string@DU?$char_traits@D@std@@V?$allocator@D@2@@std@@@std@@YAPEBV?$basic_string@DU?$char_traits@D@std@@V?$allocator@D@2@@0@AEBV10@@Z
	??$addressof@$$CBV?$vector@EV?$allocator@E@std@@@std@@@std@@YAPEBV?$vector@EV?$allocator@E@std@@@0@AEBV10@@Z
	??$addressof@D@std@@YAPEADAEAD@Z
	??$addressof@E@std@@YAPEAEAEAE@Z
	??$addressof@PEAD@std@@YAPEAPEADAEAPEAD@Z
	??$addressof@PEA_W@std@@YAPEAPEA_WAEAPEA_W@Z
	??$addressof@U_Container_base12@std@@@std@@YAPEAU_Container_base12@0@AEAU10@@Z
	??$addressof@U_Container_proxy@std@@@std@@YAPEAU_Container_proxy@0@AEAU10@@Z
	??$addressof@V?$_String_val@U?$_Simple_types@D@std@@@std@@@std@@YAPEAV?$_String_val@U?$_Simple_types@D@std@@@0@AEAV10@@Z
	??$addressof@V?$_Vector_val@U?$_Simple_types@E@std@@@std@@@std@@YAPEAV?$_Vector_val@U?$_Simple_types@E@std@@@0@AEAV10@@Z
	??$addressof@V?$basic_string@DU?$char_traits@D@std@@V?$allocator@D@2@@std@@@std@@YAPEAV?$basic_string@DU?$char_traits@D@std@@V?$allocator@D@2@@0@AEAV10@@Z
	??$addressof@V?$basic_stringbuf@DU?$char_traits@D@std@@V?$allocator@D@2@@std@@@std@@YAPEAV?$basic_stringbuf@DU?$char_traits@D@std@@V?$allocator@D@2@@0@AEAV10@@Z
	??$addressof@V?$vector@W4Api@RtMidi@@V?$allocator@W4Api@RtMidi@@@std@@@std@@@std@@YAPEAV?$vector@W4Api@RtMidi@@V?$allocator@W4Api@RtMidi@@@std@@@0@AEAV10@@Z
	??$assign@V?$_Vector_iterator@V?$_Vector_val@U?$_Simple_types@E@std@@@std@@@std@@$0A@@?$vector@EV?$allocator@E@std@@@std@@QEAAXV?$_Vector_iterator@V?$_Vector_val@U?$_Simple_types@E@std@@@std@@@1@0@Z
	??$construct@E$$V@?$_Default_allocator_traits@V?$allocator@E@std@@@std@@SAXAEAV?$allocator@E@1@QEAE@Z
	??$construct@EAEAE@?$_Default_allocator_traits@V?$allocator@E@std@@@std@@SAXAEAV?$allocator@E@1@QEAEAEAE@Z
	??$construct@EAEBE@?$_Default_allocator_traits@V?$allocator@E@std@@@std@@SAXAEAV?$allocator@E@1@QEAEAEBE@Z
	??$construct@EE@?$_Default_allocator_traits@V?$allocator@E@std@@@std@@SAXAEAV?$allocator@E@1@QEAE$$QEAE@Z
	??$construct@PEAUmidihdr_tag@@$$V@?$_Default_allocator_traits@V?$allocator@PEAUmidihdr_tag@@@std@@@std@@SAXAEAV?$allocator@PEAUmidihdr_tag@@@1@QEAPEAUmidihdr_tag@@@Z
	??$construct@PEAUmidihdr_tag@@PEAU1@@?$_Default_allocator_traits@V?$allocator@PEAUmidihdr_tag@@@std@@@std@@SAXAEAV?$allocator@PEAUmidihdr_tag@@@1@QEAPEAUmidihdr_tag@@$$QEAPEAU3@@Z
	??$construct@W4Api@RtMidi@@AEBW412@@?$_Default_allocator_traits@V?$allocator@W4Api@RtMidi@@@std@@@std@@SAXAEAV?$allocator@W4Api@RtMidi@@@1@QEAW4Api@RtMidi@@AEBW434@@Z
	??$distance@PEAE@std@@YA_JPEAE0@Z
	??$distance@PEBW4Api@RtMidi@@@std@@YA_JPEBW4Api@RtMidi@@0@Z
	??$endl@DU?$char_traits@D@std@@@std@@YAAEAV?$basic_ostream@DU?$char_traits@D@std@@@0@AEAV10@@Z
	??$exchange@PEAU_Container_proxy@std@@$$T@std@@YAPEAU_Container_proxy@0@AEAPEAU10@$$QEA$$T@Z
	??$exchange@PEAU_Iterator_base12@std@@$$T@std@@YAPEAU_Iterator_base12@0@AEAPEAU10@$$QEA$$T@Z
	??$forward@AEAE@std@@YAAEAEAEAE@Z
	??$forward@AEAPEAD@std@@YAAEAPEADAEAPEAD@Z
	??$forward@AEBE@std@@YAAEBEAEBE@Z
	??$forward@AEBQEAD@std@@YAAEBQEADAEBQEAD@Z
	??$forward@AEBQEAE@std@@YAAEBQEAEAEBQEAE@Z
	??$forward@AEBQEA_W@std@@YAAEBQEA_WAEBQEA_W@Z
	??$forward@AEBV?$allocator@D@std@@@std@@YAAEBV?$allocator@D@0@AEBV10@@Z
	??$forward@AEBV?$allocator@E@std@@@std@@YAAEBV?$allocator@E@0@AEBV10@@Z
	??$forward@AEBV?$allocator@W4Api@RtMidi@@@std@@@std@@YAAEBV?$allocator@W4Api@RtMidi@@@0@AEBV10@@Z
	??$forward@AEBW4Api@RtMidi@@@std@@YAAEBW4Api@RtMidi@@AEBW412@@Z
	??$forward@E@std@@YA$$QEAEAEAE@Z
	??$forward@PEAU_Container_base12@std@@@std@@YA$$QEAPEAU_Container_base12@0@AEAPEAU10@@Z
	??$forward@PEAUmidihdr_tag@@@std@@YA$$QEAPEAUmidihdr_tag@@AEAPEAU1@@Z
	??$forward@PEBW4Api@RtMidi@@@std@@YA$$QEAPEBW4Api@RtMidi@@AEAPEBW412@@Z
	??$forward@V?$allocator@D@std@@@std@@YA$$QEAV?$allocator@D@0@AEAV10@@Z
	??$forward@V?$allocator@E@std@@@std@@YA$$QEAV?$allocator@E@0@AEAV10@@Z
	??$max@PEAD@std@@YAAEBQEADAEBQEAD0@Z
	??$max@_K@std@@YAAEB_KAEB_K0@Z
	??$min@_K@std@@YAAEB_KAEB_K0@Z
	??$move@AEAE@std@@YA$$QEAEAEAE@Z
	??$move@AEAPEAE@std@@YA$$QEAPEAEAEAPEAE@Z
	??$move@AEAPEAUmidihdr_tag@@@std@@YA$$QEAPEAUmidihdr_tag@@AEAPEAU1@@Z
	??$move@AEAPEBW4Api@RtMidi@@@std@@YA$$QEAPEBW4Api@RtMidi@@AEAPEBW412@@Z
	??$move@AEAV?$allocator@D@std@@@std@@YA$$QEAV?$allocator@D@0@AEAV10@@Z
	??$move@AEAV?$allocator@W4Api@RtMidi@@@std@@@std@@YA$$QEAV?$allocator@W4Api@RtMidi@@@0@AEAV10@@Z
	??$move@AEAVRtMidiIn@@@std@@YA$$QEAVRtMidiIn@@AEAV1@@Z
	??$move@AEAVRtMidiOut@@@std@@YA$$QEAVRtMidiOut@@AEAV1@@Z
	??0?$_Container_proxy_ptr12@V?$allocator@U_Container_proxy@std@@@std@@@std@@QEAA@AEAV?$allocator@U_Container_proxy@std@@@1@AEAU_Container_base12@1@@Z
	??0?$_String_val@U?$_Simple_types@D@std@@@std@@QEAA@XZ
	??0?$_String_val@U?$_Simple_types@_W@std@@@std@@QEAA@XZ
	??0?$_Uninitialized_backout_al@V?$allocator@E@std@@@std@@QEAA@PEAEAEAV?$allocator@E@1@@Z
	??0?$_Uninitialized_backout_al@V?$allocator@PEAUmidihdr_tag@@@std@@@std@@QEAA@PEAPEAUmidihdr_tag@@AEAV?$allocator@PEAUmidihdr_tag@@@1@@Z
	??0?$_Uninitialized_backout_al@V?$allocator@W4Api@RtMidi@@@std@@@std@@QEAA@PEAW4Api@RtMidi@@AEAV?$allocator@W4Api@RtMidi@@@1@@Z
	??0?$_Vector_const_iterator@V?$_Vector_val@U?$_Simple_types@E@std@@@std@@@std@@QEAA@PEAEPEBU_Container_base12@1@@Z
	??0?$_Vector_iterator@V?$_Vector_val@U?$_Simple_types@E@std@@@std@@@std@@QEAA@PEAEPEBU_Container_base12@1@@Z
	??0?$_Vector_val@U?$_Simple_types@E@std@@@std@@QEAA@XZ
	??0?$_Vector_val@U?$_Simple_types@PEAUmidihdr_tag@@@std@@@std@@QEAA@XZ
	??0?$_Vector_val@U?$_Simple_types@W4Api@RtMidi@@@std@@@std@@QEAA@XZ
	??0?$allocator@D@std@@QEAA@XZ
	??0?$allocator@E@std@@QEAA@XZ
	??0?$allocator@PEAUmidihdr_tag@@@std@@QEAA@XZ
	??0?$allocator@W4Api@RtMidi@@@std@@QEAA@XZ
	??0?$allocator@_W@std@@QEAA@XZ
	??0?$basic_ostringstream@DU?$char_traits@D@std@@V?$allocator@D@2@@std@@QEAA@XZ
	??0?$basic_string@DU?$char_traits@D@std@@V?$allocator@D@2@@std@@QEAA@$$QEAV01@@Z
	??0?$basic_string@DU?$char_traits@D@std@@V?$allocator@D@2@@std@@QEAA@AEBV01@@Z
	??0?$basic_string@DU?$char_traits@D@std@@V?$allocator@D@2@@std@@QEAA@AEBV?$allocator@D@1@@Z
	??0?$basic_string@DU?$char_traits@D@std@@V?$allocator@D@2@@std@@QEAA@QEBD@Z
	??0?$basic_string@DU?$char_traits@D@std@@V?$allocator@D@2@@std@@QEAA@XZ
	??0?$basic_string@_WU?$char_traits@_W@std@@V?$allocator@_W@2@@std@@QEAA@XZ
	??0?$basic_stringbuf@DU?$char_traits@D@std@@V?$allocator@D@2@@std@@QEAA@H@Z
	??0?$fpos@U_Mbstatet@@@std@@QEAA@_J@Z
	??0?$vector@EV?$allocator@E@std@@@std@@QEAA@AEBV01@@Z
	??0?$vector@EV?$allocator@E@std@@@std@@QEAA@XZ
	??0?$vector@EV?$allocator@E@std@@@std@@QEAA@_KAEBV?$allocator@E@1@@Z
	??0?$vector@PEAUmidihdr_tag@@V?$allocator@PEAUmidihdr_tag@@@std@@@std@@QEAA@XZ
	??0?$vector@W4Api@RtMidi@@V?$allocator@W4Api@RtMidi@@@std@@@std@@QEAA@XZ
	??0CallbackProxyUserData@@QEAA@P6AXNPEBE_KPEAX@Z2@Z
	??0MidiApi@@QEAA@AEBV0@@Z
	??0MidiApi@@QEAA@XZ
	??0MidiInApi@@QEAA@AEBV0@@Z
	??0MidiInApi@@QEAA@I@Z
	??0MidiInWinMM@@QEAA@AEBV?$basic_string@DU?$char_traits@D@std@@V?$allocator@D@2@@std@@I@Z
	??0MidiMessage@MidiInApi@@QEAA@AEBU01@@Z
	??0MidiMessage@MidiInApi@@QEAA@XZ
	??0MidiOutApi@@QEAA@AEBV0@@Z
	??0MidiOutApi@@QEAA@XZ
	??0MidiOutWinMM@@QEAA@AEBV?$basic_string@DU?$char_traits@D@std@@V?$allocator@D@2@@std@@@Z
	??0MidiQueue@MidiInApi@@QEAA@XZ
	??0RtMidi@@IEAA@XZ
	??0RtMidi@@QEAA@$$QEAV0@@Z
	??0RtMidiError@@QEAA@AEBV0@@Z
	??0RtMidiError@@QEAA@AEBV?$basic_string@DU?$char_traits@D@std@@V?$allocator@D@2@@std@@W4Type@0@@Z
	??0RtMidiIn@@QEAA@$$QEAV0@@Z
	??0RtMidiIn@@QEAA@W4Api@RtMidi@@AEBV?$basic_string@DU?$char_traits@D@std@@V?$allocator@D@2@@std@@I@Z
	??0RtMidiInData@MidiInApi@@QEAA@AEBU01@@Z
	??0RtMidiInData@MidiInApi@@QEAA@XZ
	??0RtMidiOut@@QEAA@$$QEAV0@@Z
	??0RtMidiOut@@QEAA@W4Api@RtMidi@@AEBV?$basic_string@DU?$char_traits@D@std@@V?$allocator@D@2@@std@@@Z
	??0WinMidiData@@QEAA@XZ
	??0_Basic_container_proxy_ptr12@std@@IEAA@XZ
	??0_Bxty@?$_String_val@U?$_Simple_types@D@std@@@std@@QEAA@XZ
	??0_Bxty@?$_String_val@U?$_Simple_types@_W@std@@@std@@QEAA@XZ
	??0_Container_base12@std@@QEAA@XZ
	??0_Container_proxy@std@@QEAA@PEAU_Container_base12@1@@Z
	??0_Iterator_base12@std@@QEAA@XZ
	??0_Sentry_base@?$basic_ostream@DU?$char_traits@D@std@@@std@@QEAA@AEAV12@@Z
	??0bad_alloc@std@@AEAA@QEBD@Z
	??0bad_alloc@std@@QEAA@AEBV01@@Z
	??0bad_array_new_length@std@@QEAA@AEBV01@@Z
	??0bad_array_new_length@std@@QEAA@XZ
	??0exception@std@@QEAA@AEBV01@@Z
	??0exception@std@@QEAA@QEBDH@Z
	??0exception@std@@QEAA@XZ
	??0sentry@?$basic_ostream@DU?$char_traits@D@std@@@std@@QEAA@AEAV12@@Z
	??1?$_Compressed_pair@V?$allocator@D@std@@V?$_String_val@U?$_Simple_types@D@std@@@2@$00@std@@QEAA@XZ
	??1?$_Compressed_pair@V?$allocator@_W@std@@V?$_String_val@U?$_Simple_types@_W@std@@@2@$00@std@@QEAA@XZ
	??1?$_Container_proxy_ptr12@V?$allocator@U_Container_proxy@std@@@std@@@std@@QEAA@XZ
	??1?$_String_val@U?$_Simple_types@D@std@@@std@@QEAA@XZ
	??1?$_String_val@U?$_Simple_types@_W@std@@@std@@QEAA@XZ
	??1?$_Tidy_guard@V?$vector@EV?$allocator@E@std@@@std@@@std@@QEAA@XZ
	??1?$_Tidy_guard@V?$vector@W4Api@RtMidi@@V?$allocator@W4Api@RtMidi@@@std@@@std@@@std@@QEAA@XZ
	??1?$_Uninitialized_backout_al@V?$allocator@E@std@@@std@@QEAA@XZ
	??1?$_Uninitialized_backout_al@V?$allocator@PEAUmidihdr_tag@@@std@@@std@@QEAA@XZ
	??1?$_Uninitialized_backout_al@V?$allocator@W4Api@RtMidi@@@std@@@std@@QEAA@XZ
	??1?$_Vector_const_iterator@V?$_Vector_val@U?$_Simple_types@E@std@@@std@@@std@@QEAA@XZ
	??1?$_Vector_iterator@V?$_Vector_val@U?$_Simple_types@E@std@@@std@@@std@@QEAA@XZ
	??1?$basic_ostringstream@DU?$char_traits@D@std@@V?$allocator@D@2@@std@@UEAA@XZ
	??1?$basic_string@DU?$char_traits@D@std@@V?$allocator@D@2@@std@@QEAA@XZ
	??1?$basic_string@_WU?$char_traits@_W@std@@V?$allocator@_W@2@@std@@QEAA@XZ
	??1?$basic_stringbuf@DU?$char_traits@D@std@@V?$allocator@D@2@@std@@UEAA@XZ
	??1?$vector@EV?$allocator@E@std@@@std@@QEAA@XZ
	??1?$vector@PEAUmidihdr_tag@@V?$allocator@PEAUmidihdr_tag@@@std@@@std@@QEAA@XZ
	??1?$vector@W4Api@RtMidi@@V?$allocator@W4Api@RtMidi@@@std@@@std@@QEAA@XZ
	??1MidiApi@@UEAA@XZ
	??1MidiInApi@@UEAA@XZ
	??1MidiInWinMM@@UEAA@XZ
	??1MidiMessage@MidiInApi@@QEAA@XZ
	??1MidiOutApi@@UEAA@XZ
	??1MidiOutWinMM@@UEAA@XZ
	??1RtMidi@@MEAA@XZ
	??1RtMidiError@@UEAA@XZ
	??1RtMidiIn@@UEAA@XZ
	??1RtMidiInData@MidiInApi@@QEAA@XZ
	??1RtMidiOut@@UEAA@XZ
	??1WinMidiData@@QEAA@XZ
	??1_Bxty@?$_String_val@U?$_Simple_types@D@std@@@std@@QEAA@XZ
	??1_Bxty@?$_String_val@U?$_Simple_types@_W@std@@@std@@QEAA@XZ
	??1_Iterator_base12@std@@QEAA@XZ
	??1_Sentry_base@?$basic_ostream@DU?$char_traits@D@std@@@std@@QEAA@XZ
	??1bad_alloc@std@@UEAA@XZ
	??1bad_array_new_length@std@@UEAA@XZ
	??1exception@std@@UEAA@XZ
	??1sentry@?$basic_ostream@DU?$char_traits@D@std@@@std@@QEAA@XZ
	??2@YAPEAX_KPEAX@Z
	??4?$basic_string@DU?$char_traits@D@std@@V?$allocator@D@2@@std@@QEAAAEAV01@$$QEAV01@@Z
	??4?$basic_string@DU?$char_traits@D@std@@V?$allocator@D@2@@std@@QEAAAEAV01@AEBV01@@Z
	??4?$basic_string@DU?$char_traits@D@std@@V?$allocator@D@2@@std@@QEAAAEAV01@QEBD@Z
	??4?$vector@EV?$allocator@E@std@@@std@@QEAAAEAV01@AEBV01@@Z
	??4?$vector@W4Api@RtMidi@@V?$allocator@W4Api@RtMidi@@@std@@@std@@QEAAAEAV01@$$QEAV01@@Z
	??4MidiApi@@QEAAAEAV0@AEBV0@@Z
	??4MidiInApi@@QEAAAEAV0@AEBV0@@Z
	??4MidiMessage@MidiInApi@@QEAAAEAU01@AEBU01@@Z
	??4MidiOutApi@@QEAAAEAV0@AEBV0@@Z
	??4RtMidiError@@QEAAAEAV0@AEBV0@@Z
	??4RtMidiInData@MidiInApi@@QEAAAEAU01@AEBU01@@Z
	??4exception@std@@QEAAAEAV01@AEBV01@@Z
	??A?$basic_string@DU?$char_traits@D@std@@V?$allocator@D@2@@std@@QEAAAEAD_K@Z
	??A?$basic_string@_WU?$char_traits@_W@std@@V?$allocator@_W@2@@std@@QEAAAEA_W_K@Z
	??A?$vector@PEAUmidihdr_tag@@V?$allocator@PEAUmidihdr_tag@@@std@@@std@@QEAAAEAPEAUmidihdr_tag@@_K@Z
	??A?$vector@W4Api@RtMidi@@V?$allocator@W4Api@RtMidi@@@std@@@std@@QEAAAEAW4Api@RtMidi@@_K@Z
	??B?$fpos@U_Mbstatet@@@std@@QEBA_JXZ
	??Bsentry@?$basic_ostream@DU?$char_traits@D@std@@@std@@QEBA_NXZ
	??R<lambda_138c3d7c38c85abb84c7fc7bfe5747b7>@@QEBA@QEAD_KD@Z
	??R<lambda_65e615be2a453ca0576c979606f46740>@@QEBA@QEADQEBD_K12@Z
	??R<lambda_66f57f934f28d61049862f64df852ff0>@@QEBA@QEAD_KQEBD@Z
	??R<lambda_b316f76599580dcfa601a433435bf0fe>@@QEBA@QEA_W_K_W@Z
	??Y?$basic_string@DU?$char_traits@D@std@@V?$allocator@D@2@@std@@QEAAAEAV01@AEBV01@@Z
	??_7?$basic_ostringstream@DU?$char_traits@D@std@@V?$allocator@D@2@@std@@6B@
	??_7?$basic_stringbuf@DU?$char_traits@D@std@@V?$allocator@D@2@@std@@6B@
	??_7MidiApi@@6B@
	??_7MidiInApi@@6B@
	??_7MidiInWinMM@@6B@
	??_7MidiOutApi@@6B@
	??_7MidiOutWinMM@@6B@
	??_7RtMidi@@6B@
	??_7RtMidiError@@6B@
	??_7RtMidiIn@@6B@
	??_7RtMidiOut@@6B@
	??_7bad_alloc@std@@6B@
	??_7bad_array_new_length@std@@6B@
	??_7exception@std@@6B@
	??_D?$basic_ostringstream@DU?$char_traits@D@std@@V?$allocator@D@2@@std@@QEAAXXZ
	??_FRtMidiIn@@QEAAXXZ
	??_FRtMidiOut@@QEAAXXZ
	?_Activate_SSO_buffer@?$_String_val@U?$_Simple_types@D@std@@@std@@QEAAXXZ
	?_Activate_SSO_buffer@?$_String_val@U?$_Simple_types@_W@std@@@std@@QEAAXXZ
	?_Adjust_manually_vector_aligned@std@@YAXAEAPEAXAEA_K@Z
	?_Adopt@_Iterator_base12@std@@QEAAXPEBU_Container_base12@2@@Z
	?_Adopt_locked@_Iterator_base12@std@@AEAAXPEBU_Container_base12@2@@Z
	?_Adopt_unlocked@_Iterator_base12@std@@AEAAXPEBU_Container_base12@2@@Z
	?_Allocate@_Default_allocate_traits@std@@SAPEAX_K@Z
	?_Buy_nonzero@?$vector@EV?$allocator@E@std@@@std@@AEAAX_K@Z
	?_Buy_nonzero@?$vector@W4Api@RtMidi@@V?$allocator@W4Api@RtMidi@@@std@@@std@@AEAAX_K@Z
	?_Buy_raw@?$vector@EV?$allocator@E@std@@@std@@AEAAX_K@Z
	?_Buy_raw@?$vector@W4Api@RtMidi@@V?$allocator@W4Api@RtMidi@@@std@@@std@@AEAAX_K@Z
	?_Calculate_growth@?$basic_string@DU?$char_traits@D@std@@V?$allocator@D@2@@std@@AEBA_K_K@Z
	?_Calculate_growth@?$basic_string@DU?$char_traits@D@std@@V?$allocator@D@2@@std@@CA_K_K00@Z
	?_Calculate_growth@?$basic_string@_WU?$char_traits@_W@std@@V?$allocator@_W@2@@std@@AEBA_K_K@Z
	?_Calculate_growth@?$basic_string@_WU?$char_traits@_W@std@@V?$allocator@_W@2@@std@@CA_K_K00@Z
	?_Calculate_growth@?$vector@EV?$allocator@E@std@@@std@@AEBA_K_K@Z
	?_Calculate_growth@?$vector@PEAUmidihdr_tag@@V?$allocator@PEAUmidihdr_tag@@@std@@@std@@AEBA_K_K@Z
	?_Change_array@?$vector@EV?$allocator@E@std@@@std@@AEAAXQEAE_K1@Z
	?_Change_array@?$vector@PEAUmidihdr_tag@@V?$allocator@PEAUmidihdr_tag@@@std@@@std@@AEAAXQEAPEAUmidihdr_tag@@_K1@Z
	?_Clear_and_reserve_geometric@?$vector@EV?$allocator@E@std@@@std@@AEAAX_K@Z
	?_Construct_empty@?$basic_string@DU?$char_traits@D@std@@V?$allocator@D@2@@std@@AEAAXXZ
	?_Construct_empty@?$basic_string@_WU?$char_traits@_W@std@@V?$allocator@_W@2@@std@@AEAAXXZ
	?_Deallocate_for_capacity@?$basic_string@DU?$char_traits@D@std@@V?$allocator@D@2@@std@@CAXAEAV?$allocator@D@2@QEAD_K@Z
	?_Deallocate_for_capacity@?$basic_string@_WU?$char_traits@_W@std@@V?$allocator@_W@2@@std@@CAXAEAV?$allocator@_W@2@QEA_W_K@Z
	?_Equal@?$basic_string@DU?$char_traits@D@std@@V?$allocator@D@2@@std@@QEBA_NQEBD@Z
	?_Get_buffer_view@?$basic_stringbuf@DU?$char_traits@D@std@@V?$allocator@D@2@@std@@QEBA?AU_Buffer_view@12@XZ
	?_Get_first@?$_Compressed_pair@V?$allocator@D@std@@V?$_String_val@U?$_Simple_types@D@std@@@2@$00@std@@QEAAAEAV?$allocator@D@2@XZ
	?_Get_first@?$_Compressed_pair@V?$allocator@D@std@@V?$_String_val@U?$_Simple_types@D@std@@@2@$00@std@@QEBAAEBV?$allocator@D@2@XZ
	?_Get_first@?$_Compressed_pair@V?$allocator@E@std@@V?$_Vector_val@U?$_Simple_types@E@std@@@2@$00@std@@QEAAAEAV?$allocator@E@2@XZ
	?_Get_first@?$_Compressed_pair@V?$allocator@E@std@@V?$_Vector_val@U?$_Simple_types@E@std@@@2@$00@std@@QEBAAEBV?$allocator@E@2@XZ
	?_Get_first@?$_Compressed_pair@V?$allocator@PEAUmidihdr_tag@@@std@@V?$_Vector_val@U?$_Simple_types@PEAUmidihdr_tag@@@std@@@2@$00@std@@QEAAAEAV?$allocator@PEAUmidihdr_tag@@@2@XZ
	?_Get_first@?$_Compressed_pair@V?$allocator@PEAUmidihdr_tag@@@std@@V?$_Vector_val@U?$_Simple_types@PEAUmidihdr_tag@@@std@@@2@$00@std@@QEBAAEBV?$allocator@PEAUmidihdr_tag@@@2@XZ
	?_Get_first@?$_Compressed_pair@V?$allocator@W4Api@RtMidi@@@std@@V?$_Vector_val@U?$_Simple_types@W4Api@RtMidi@@@std@@@2@$00@std@@QEAAAEAV?$allocator@W4Api@RtMidi@@@2@XZ
	?_Get_first@?$_Compressed_pair@V?$allocator@W4Api@RtMidi@@@std@@V?$_Vector_val@U?$_Simple_types@W4Api@RtMidi@@@std@@@2@$00@std@@QEBAAEBV?$allocator@W4Api@RtMidi@@@2@XZ
	?_Get_first@?$_Compressed_pair@V?$allocator@_W@std@@V?$_String_val@U?$_Simple_types@_W@std@@@2@$00@std@@QEAAAEAV?$allocator@_W@2@XZ
	?_Get_first@?$_Compressed_pair@V?$allocator@_W@std@@V?$_String_val@U?$_Simple_types@_W@std@@@2@$00@std@@QEBAAEBV?$allocator@_W@2@XZ
	?_Getal@?$basic_string@DU?$char_traits@D@std@@V?$allocator@D@2@@std@@AEAAAEAV?$allocator@D@2@XZ
	?_Getal@?$basic_string@DU?$char_traits@D@std@@V?$allocator@D@2@@std@@AEBAAEBV?$allocator@D@2@XZ
	?_Getal@?$basic_string@_WU?$char_traits@_W@std@@V?$allocator@_W@2@@std@@AEAAAEAV?$allocator@_W@2@XZ
	?_Getal@?$basic_string@_WU?$char_traits@_W@std@@V?$allocator@_W@2@@std@@AEBAAEBV?$allocator@_W@2@XZ
	?_Getal@?$vector@EV?$allocator@E@std@@@std@@AEAAAEAV?$allocator@E@2@XZ
	?_Getal@?$vector@EV?$allocator@E@std@@@std@@AEBAAEBV?$allocator@E@2@XZ
	?_Getal@?$vector@PEAUmidihdr_tag@@V?$allocator@PEAUmidihdr_tag@@@std@@@std@@AEAAAEAV?$allocator@PEAUmidihdr_tag@@@2@XZ
	?_Getal@?$vector@PEAUmidihdr_tag@@V?$allocator@PEAUmidihdr_tag@@@std@@@std@@AEBAAEBV?$allocator@PEAUmidihdr_tag@@@2@XZ
	?_Getal@?$vector@W4Api@RtMidi@@V?$allocator@W4Api@RtMidi@@@std@@@std@@AEAAAEAV?$allocator@W4Api@RtMidi@@@2@XZ
	?_Getal@?$vector@W4Api@RtMidi@@V?$allocator@W4Api@RtMidi@@@std@@@std@@AEBAAEBV?$allocator@W4Api@RtMidi@@@2@XZ
	?_Getcont@_Iterator_base12@std@@QEBAPEBU_Container_base12@2@XZ
	?_Getstate@?$basic_stringbuf@DU?$char_traits@D@std@@V?$allocator@D@2@@std@@CAHH@Z
	?_Large_mode_engaged@?$_String_val@U?$_Simple_types@D@std@@@std@@QEBA_NXZ
	?_Large_mode_engaged@?$_String_val@U?$_Simple_types@_W@std@@@std@@QEBA_NXZ
	?_Myptr@?$_String_val@U?$_Simple_types@D@std@@@std@@QEAAPEADXZ
	?_Myptr@?$_String_val@U?$_Simple_types@D@std@@@std@@QEBAPEBDXZ
	?_Myptr@?$_String_val@U?$_Simple_types@_W@std@@@std@@QEAAPEA_WXZ
	?_Orphan_all@_Container_base12@std@@QEAAXXZ
	?_Orphan_all_locked_v3@_Container_base12@std@@AEAAXXZ
	?_Orphan_all_unlocked_v3@_Container_base12@std@@AEAAXXZ
	?_Orphan_me_locked_v3@_Iterator_base12@std@@AEAAXXZ
	?_Orphan_me_unlocked_v3@_Iterator_base12@std@@AEAAXXZ
	?_Orphan_range@?$vector@EV?$allocator@E@std@@@std@@AEBAXPEAE0@Z
	?_Orphan_range@?$vector@PEAUmidihdr_tag@@V?$allocator@PEAUmidihdr_tag@@@std@@@std@@AEBAXPEAPEAUmidihdr_tag@@0@Z
	?_Orphan_range_locked@?$vector@EV?$allocator@E@std@@@std@@AEBAXPEAE0@Z
	?_Orphan_range_locked@?$vector@PEAUmidihdr_tag@@V?$allocator@PEAUmidihdr_tag@@@std@@@std@@AEBAXPEAPEAUmidihdr_tag@@0@Z
	?_Orphan_range_unlocked@?$vector@EV?$allocator@E@std@@@std@@AEBAXPEAE0@Z
	?_Orphan_range_unlocked@?$vector@PEAUmidihdr_tag@@V?$allocator@PEAUmidihdr_tag@@@std@@@std@@AEBAXPEAPEAUmidihdr_tag@@0@Z
	?_Release@?$_Uninitialized_backout_al@V?$allocator@E@std@@@std@@QEAAPEAEXZ
	?_Release@?$_Uninitialized_backout_al@V?$allocator@PEAUmidihdr_tag@@@std@@@std@@QEAAPEAPEAUmidihdr_tag@@XZ
	?_Release@?$_Uninitialized_backout_al@V?$allocator@W4Api@RtMidi@@@std@@@std@@QEAAPEAW4Api@RtMidi@@XZ
	?_Release@_Basic_container_proxy_ptr12@std@@QEAAXXZ
	?_Swap_proxy_and_iterators@?$basic_string@DU?$char_traits@D@std@@V?$allocator@D@2@@std@@AEAAXAEAV12@@Z
	?_Swap_proxy_and_iterators@_Container_base12@std@@QEAAXAEAU12@@Z
	?_Swap_proxy_and_iterators_locked@_Container_base12@std@@AEAAXAEAU12@@Z
	?_Swap_proxy_and_iterators_unlocked@_Container_base12@std@@AEAAXAEAU12@@Z
	?_Switch_to_buf@_Bxty@?$_String_val@U?$_Simple_types@D@std@@@std@@QEAAXXZ
	?_Switch_to_buf@_Bxty@?$_String_val@U?$_Simple_types@_W@std@@@std@@QEAAXXZ
	?_Take_contents@?$_Vector_val@U?$_Simple_types@W4Api@RtMidi@@@std@@@std@@QEAAXAEAV12@@Z
	?_Take_contents@?$basic_string@DU?$char_traits@D@std@@V?$allocator@D@2@@std@@AEAAXAEAV12@@Z
	?_Throw_bad_array_new_length@std@@YAXXZ
	?_Tidy@?$basic_stringbuf@DU?$char_traits@D@std@@V?$allocator@D@2@@std@@IEAAXXZ
	?_Tidy@?$vector@EV?$allocator@E@std@@@std@@AEAAXXZ
	?_Tidy@?$vector@PEAUmidihdr_tag@@V?$allocator@PEAUmidihdr_tag@@@std@@@std@@AEAAXXZ
	?_Tidy@?$vector@W4Api@RtMidi@@V?$allocator@W4Api@RtMidi@@@std@@@std@@AEAAXXZ
	?_Tidy_deallocate@?$basic_string@DU?$char_traits@D@std@@V?$allocator@D@2@@std@@AEAAXXZ
	?_Tidy_deallocate@?$basic_string@_WU?$char_traits@_W@std@@V?$allocator@_W@2@@std@@AEAAXXZ
	?_Unwrapped@?$_Vector_iterator@V?$_Vector_val@U?$_Simple_types@E@std@@@std@@@std@@QEBAPEAEXZ
	?_Verify_range@std@@YAXAEBV?$_Vector_const_iterator@V?$_Vector_val@U?$_Simple_types@E@std@@@std@@@1@0@Z
	?_Xlen_string@std@@YAXXZ
	?_Xlength@?$vector@EV?$allocator@E@std@@@std@@CAXXZ
	?_Xlength@?$vector@PEAUmidihdr_tag@@V?$allocator@PEAUmidihdr_tag@@@std@@@std@@CAXXZ
	?_Xlength@?$vector@W4Api@RtMidi@@V?$allocator@W4Api@RtMidi@@@std@@@std@@CAXXZ
	?_Xrange@?$vector@EV?$allocator@E@std@@@std@@CAXXZ
	?__empty_global_delete@@YAXPEAX@Z
	?__empty_global_delete@@YAXPEAX_K@Z
	?allocate@?$allocator@D@std@@QEAAPEAD_K@Z
	?allocate@?$allocator@E@std@@QEAAPEAE_K@Z
	?allocate@?$allocator@PEAUmidihdr_tag@@@std@@QEAAPEAPEAUmidihdr_tag@@_K@Z
	?allocate@?$allocator@U_Container_proxy@std@@@std@@QEAAPEAU_Container_proxy@2@_K@Z
	?allocate@?$allocator@W4Api@RtMidi@@@std@@QEAAPEAW4Api@RtMidi@@_K@Z
	?allocate@?$allocator@_W@std@@QEAAPEA_W_K@Z
	?append@?$basic_string@DU?$char_traits@D@std@@V?$allocator@D@2@@std@@QEAAAEAV12@AEBV12@@Z
	?append@?$basic_string@DU?$char_traits@D@std@@V?$allocator@D@2@@std@@QEAAAEAV12@QEBD_K@Z
	?assign@?$_Narrow_char_traits@DH@std@@SAPEADQEAD_KD@Z
	?assign@?$_Narrow_char_traits@DH@std@@SAXAEADAEBD@Z
	?assign@?$_WChar_traits@_W@std@@SAPEA_WQEA_W_K_W@Z
	?assign@?$_WChar_traits@_W@std@@SAXAEA_WAEB_W@Z
	?assign@?$basic_string@DU?$char_traits@D@std@@V?$allocator@D@2@@std@@QEAAAEAV12@QEBD@Z
	?assign@?$basic_string@DU?$char_traits@D@std@@V?$allocator@D@2@@std@@QEAAAEAV12@QEBD_K@Z
	?assign@?$basic_string@DU?$char_traits@D@std@@V?$allocator@D@2@@std@@QEAAAEAV12@_KD@Z
	?assign@?$basic_string@_WU?$char_traits@_W@std@@V?$allocator@_W@2@@std@@QEAAAEAV12@_K_W@Z
	?at@?$vector@EV?$allocator@E@std@@@std@@QEBAAEBE_K@Z
	?begin@?$vector@EV?$allocator@E@std@@@std@@QEAA?AV?$_Vector_iterator@V?$_Vector_val@U?$_Simple_types@E@std@@@std@@@2@XZ
	?c_str@?$basic_string@DU?$char_traits@D@std@@V?$allocator@D@2@@std@@QEBAPEBDXZ
	?cancelCallback@MidiInApi@@QEAAXXZ
	?cancelCallback@RtMidiIn@@QEAAXXZ
	?capacity@?$vector@EV?$allocator@E@std@@@std@@QEBA_KXZ
	?capacity@?$vector@PEAUmidihdr_tag@@V?$allocator@PEAUmidihdr_tag@@@std@@@std@@QEBA_KXZ
	?clear@?$vector@EV?$allocator@E@std@@@std@@QEAAXXZ
	?closePort@MidiInWinMM@@UEAAXXZ
	?closePort@MidiOutWinMM@@UEAAXXZ
	?closePort@RtMidiIn@@UEAAXXZ
	?closePort@RtMidiOut@@UEAAXXZ
	?compare@?$_Narrow_char_traits@DH@std@@SAHQEBD0_K@Z
	?copy@?$_Char_traits@DH@std@@SAPEADQEADQEBD_K@Z
	?data@?$basic_string@DU?$char_traits@D@std@@V?$allocator@D@2@@std@@QEBAPEBDXZ
	?data@?$vector@EV?$allocator@E@std@@@std@@QEAAPEAEXZ
	?deallocate@?$_Default_allocator_traits@V?$allocator@U_Container_proxy@std@@@std@@@std@@SAXAEAV?$allocator@U_Container_proxy@std@@@2@QEAU_Container_proxy@2@_K@Z
	?deallocate@?$allocator@D@std@@QEAAXQEAD_K@Z
	?deallocate@?$allocator@E@std@@QEAAXQEAE_K@Z
	?deallocate@?$allocator@PEAUmidihdr_tag@@@std@@QEAAXQEAPEAUmidihdr_tag@@_K@Z
	?deallocate@?$allocator@W4Api@RtMidi@@@std@@QEAAXQEAW4Api@RtMidi@@_K@Z
	?deallocate@?$allocator@_W@std@@QEAAXQEA_W_K@Z
	?end@?$vector@EV?$allocator@E@std@@@std@@QEAA?AV?$_Vector_iterator@V?$_Vector_val@U?$_Simple_types@E@std@@@std@@@2@XZ
	?eof@?$_Narrow_char_traits@DH@std@@SAHXZ
	?eq@?$_Narrow_char_traits@DH@std@@SA_NDD@Z
	?eq_int_type@?$_Narrow_char_traits@DH@std@@SA_NHH@Z
	?error@MidiApi@@QEAAXW4Type@RtMidiError@@V?$basic_string@DU?$char_traits@D@std@@V?$allocator@D@2@@std@@@Z
	?getApiDisplayName@RtMidi@@SA?AV?$basic_string@DU?$char_traits@D@std@@V?$allocator@D@2@@std@@W4Api@1@@Z
	?getApiName@RtMidi@@SA?AV?$basic_string@DU?$char_traits@D@std@@V?$allocator@D@2@@std@@W4Api@1@@Z
	?getCompiledApi@RtMidi@@SAXAEAV?$vector@W4Api@RtMidi@@V?$allocator@W4Api@RtMidi@@@std@@@std@@@Z
	?getCompiledApiByName@RtMidi@@SA?AW4Api@1@AEBV?$basic_string@DU?$char_traits@D@std@@V?$allocator@D@2@@std@@@Z
	?getCurrentApi@MidiInWinMM@@UEAA?AW4Api@RtMidi@@XZ
	?getCurrentApi@MidiOutWinMM@@UEAA?AW4Api@RtMidi@@XZ
	?getCurrentApi@RtMidiIn@@QEAA?AW4Api@RtMidi@@XZ
	?getCurrentApi@RtMidiOut@@QEAA?AW4Api@RtMidi@@XZ
	?getMessage@MidiInApi@@UEAANPEAV?$vector@EV?$allocator@E@std@@@std@@@Z
	?getMessage@RtMidiError@@UEBAAEBV?$basic_string@DU?$char_traits@D@std@@V?$allocator@D@2@@std@@XZ
	?getMessage@RtMidiIn@@QEAANPEAV?$vector@EV?$allocator@E@std@@@std@@@Z
	?getPortCount@MidiInWinMM@@UEAAIXZ
	?getPortCount@MidiOutWinMM@@UEAAIXZ
	?getPortCount@RtMidiIn@@UEAAIXZ
	?getPortCount@RtMidiOut@@UEAAIXZ
	?getPortName@MidiInWinMM@@UEAA?AV?$basic_string@DU?$char_traits@D@std@@V?$allocator@D@2@@std@@I@Z
	?getPortName@MidiOutWinMM@@UEAA?AV?$basic_string@DU?$char_traits@D@std@@V?$allocator@D@2@@std@@I@Z
	?getPortName@RtMidiIn@@UEAA?AV?$basic_string@DU?$char_traits@D@std@@V?$allocator@D@2@@std@@I@Z
	?getPortName@RtMidiOut@@UEAA?AV?$basic_string@DU?$char_traits@D@std@@V?$allocator@D@2@@std@@I@Z
	?getType@RtMidiError@@UEBAAEBW4Type@1@XZ
	?getVersion@RtMidi@@SA?AV?$basic_string@DU?$char_traits@D@std@@V?$allocator@D@2@@std@@XZ
	?ignoreTypes@MidiInApi@@UEAAX_N00@Z
	?ignoreTypes@RtMidiIn@@QEAAX_N00@Z
	?initialize@MidiInWinMM@@MEAAXAEBV?$basic_string@DU?$char_traits@D@std@@V?$allocator@D@2@@std@@@Z
	?initialize@MidiOutWinMM@@MEAAXAEBV?$basic_string@DU?$char_traits@D@std@@V?$allocator@D@2@@std@@@Z
	?isPortOpen@MidiApi@@QEBA_NXZ
	?isPortOpen@RtMidiIn@@UEBA_NXZ
	?isPortOpen@RtMidiOut@@UEBA_NXZ
	?length@?$_Narrow_char_traits@DH@std@@SA_KQEBD@Z
	?max@?$numeric_limits@_J@std@@SA_JXZ
	?max_size@?$_Default_allocator_traits@V?$allocator@D@std@@@std@@SA_KAEBV?$allocator@D@2@@Z
	?max_size@?$_Default_allocator_traits@V?$allocator@E@std@@@std@@SA_KAEBV?$allocator@E@2@@Z
	?max_size@?$_Default_allocator_traits@V?$allocator@PEAUmidihdr_tag@@@std@@@std@@SA_KAEBV?$allocator@PEAUmidihdr_tag@@@2@@Z
	?max_size@?$_Default_allocator_traits@V?$allocator@W4Api@RtMidi@@@std@@@std@@SA_KAEBV?$allocator@W4Api@RtMidi@@@2@@Z
	?max_size@?$_Default_allocator_traits@V?$allocator@_W@std@@@std@@SA_KAEBV?$allocator@_W@2@@Z
	?max_size@?$basic_string@DU?$char_traits@D@std@@V?$allocator@D@2@@std@@QEBA_KXZ
	?max_size@?$basic_string@_WU?$char_traits@_W@std@@V?$allocator@_W@2@@std@@QEBA_KXZ
	?max_size@?$vector@EV?$allocator@E@std@@@std@@QEBA_KXZ
	?max_size@?$vector@PEAUmidihdr_tag@@V?$allocator@PEAUmidihdr_tag@@@std@@@std@@QEBA_KXZ
	?max_size@?$vector@W4Api@RtMidi@@V?$allocator@W4Api@RtMidi@@@std@@@std@@QEBA_KXZ
	?move@?$_Char_traits@DH@std@@SAPEADQEADQEBD_K@Z
	?not_eof@?$_Narrow_char_traits@DH@std@@SAHH@Z
	?openMidiApi@RtMidiIn@@IEAAXW4Api@RtMidi@@AEBV?$basic_string@DU?$char_traits@D@std@@V?$allocator@D@2@@std@@I@Z
	?openMidiApi@RtMidiOut@@IEAAXW4Api@RtMidi@@AEBV?$basic_string@DU?$char_traits@D@std@@V?$allocator@D@2@@std@@@Z
	?openPort@MidiInWinMM@@UEAAXIAEBV?$basic_string@DU?$char_traits@D@std@@V?$allocator@D@2@@std@@@Z
	?openPort@MidiOutWinMM@@UEAAXIAEBV?$basic_string@DU?$char_traits@D@std@@V?$allocator@D@2@@std@@@Z
	?openPort@RtMidiIn@@UEAAXIAEBV?$basic_string@DU?$char_traits@D@std@@V?$allocator@D@2@@std@@@Z
	?openPort@RtMidiOut@@UEAAXIAEBV?$basic_string@DU?$char_traits@D@std@@V?$allocator@D@2@@std@@@Z
	?openVirtualPort@MidiInWinMM@@UEAAXAEBV?$basic_string@DU?$char_traits@D@std@@V?$allocator@D@2@@std@@@Z
	?openVirtualPort@MidiOutWinMM@@UEAAXAEBV?$basic_string@DU?$char_traits@D@std@@V?$allocator@D@2@@std@@@Z
	?openVirtualPort@RtMidiIn@@UEAAXAEBV?$basic_string@DU?$char_traits@D@std@@V?$allocator@D@2@@std@@@Z
	?openVirtualPort@RtMidiOut@@UEAAXAEBV?$basic_string@DU?$char_traits@D@std@@V?$allocator@D@2@@std@@@Z
	?overflow@?$basic_stringbuf@DU?$char_traits@D@std@@V?$allocator@D@2@@std@@MEAAHH@Z
	?pbackfail@?$basic_stringbuf@DU?$char_traits@D@std@@V?$allocator@D@2@@std@@MEAAHH@Z
	?pointer_to@?$pointer_traits@PEAD@std@@SAPEADAEAD@Z
	?pop@MidiQueue@MidiInApi@@QEAA_NPEAV?$vector@EV?$allocator@E@std@@@std@@PEAN@Z
	?printMessage@RtMidiError@@UEBAXXZ
	?push@MidiQueue@MidiInApi@@QEAA_NAEBUMidiMessage@2@@Z
	?push_back@?$vector@EV?$allocator@E@std@@@std@@QEAAX$$QEAE@Z
	?push_back@?$vector@EV?$allocator@E@std@@@std@@QEAAXAEBE@Z
	?resize@?$vector@PEAUmidihdr_tag@@V?$allocator@PEAUmidihdr_tag@@@std@@@std@@QEAAX_K@Z
	?rtmidi_error@@YAXPEAVMidiApi@@W4RtMidiErrorType@@PEBD@Z
	?seekoff@?$basic_stringbuf@DU?$char_traits@D@std@@V?$allocator@D@2@@std@@MEAA?AV?$fpos@U_Mbstatet@@@2@_JHH@Z
	?seekpos@?$basic_stringbuf@DU?$char_traits@D@std@@V?$allocator@D@2@@std@@MEAA?AV?$fpos@U_Mbstatet@@@2@V32@H@Z
	?select_on_container_copy_construction@?$_Default_allocator_traits@V?$allocator@D@std@@@std@@SA?AV?$allocator@D@2@AEBV32@@Z
	?select_on_container_copy_construction@?$_Default_allocator_traits@V?$allocator@E@std@@@std@@SA?AV?$allocator@E@2@AEBV32@@Z
	?sendMessage@MidiOutWinMM@@UEAAXPEBE_K@Z
	?sendMessage@RtMidiOut@@QEAAXPEBE_K@Z
	?sendMessage@RtMidiOut@@QEAAXPEBV?$vector@EV?$allocator@E@std@@@std@@@Z
	?setBufferSize@MidiInApi@@UEAAXII@Z
	?setBufferSize@RtMidiIn@@UEAAXII@Z
	?setCallback@MidiInApi@@QEAAXP6AXNPEAV?$vector@EV?$allocator@E@std@@@std@@PEAX@Z1@Z
	?setCallback@RtMidiIn@@QEAAXP6AXNPEAV?$vector@EV?$allocator@E@std@@@std@@PEAX@Z1@Z
	?setClientName@MidiInWinMM@@UEAAXAEBV?$basic_string@DU?$char_traits@D@std@@V?$allocator@D@2@@std@@@Z
	?setClientName@MidiOutWinMM@@UEAAXAEBV?$basic_string@DU?$char_traits@D@std@@V?$allocator@D@2@@std@@@Z
	?setClientName@RtMidi@@QEAAXAEBV?$basic_string@DU?$char_traits@D@std@@V?$allocator@D@2@@std@@@Z
	?setErrorCallback@MidiApi@@QEAAXP6AXW4Type@RtMidiError@@AEBV?$basic_string@DU?$char_traits@D@std@@V?$allocator@D@2@@std@@PEAX@Z2@Z
	?setErrorCallback@RtMidiIn@@UEAAXP6AXW4Type@RtMidiError@@AEBV?$basic_string@DU?$char_traits@D@std@@V?$allocator@D@2@@std@@PEAX@Z2@Z
	?setErrorCallback@RtMidiOut@@UEAAXP6AXW4Type@RtMidiError@@AEBV?$basic_string@DU?$char_traits@D@std@@V?$allocator@D@2@@std@@PEAX@Z2@Z
	?setPortName@MidiInWinMM@@UEAAXAEBV?$basic_string@DU?$char_traits@D@std@@V?$allocator@D@2@@std@@@Z
	?setPortName@MidiOutWinMM@@UEAAXAEBV?$basic_string@DU?$char_traits@D@std@@V?$allocator@D@2@@std@@@Z
	?setPortName@RtMidi@@QEAAXAEBV?$basic_string@DU?$char_traits@D@std@@V?$allocator@D@2@@std@@@Z
	?size@?$basic_string@DU?$char_traits@D@std@@V?$allocator@D@2@@std@@QEBA_KXZ
	?size@?$vector@EV?$allocator@E@std@@@std@@QEBA_KXZ
	?size@?$vector@PEAUmidihdr_tag@@V?$allocator@PEAUmidihdr_tag@@@std@@@std@@QEBA_KXZ
	?size@?$vector@W4Api@RtMidi@@V?$allocator@W4Api@RtMidi@@@std@@@std@@QEBA_KXZ
	?size@MidiQueue@MidiInApi@@QEAAIPEAI0@Z
	?str@?$basic_ostringstream@DU?$char_traits@D@std@@V?$allocator@D@2@@std@@QEBA?AV?$basic_string@DU?$char_traits@D@std@@V?$allocator@D@2@@2@XZ
	?str@?$basic_stringbuf@DU?$char_traits@D@std@@V?$allocator@D@2@@std@@QEBA?AV?$basic_string@DU?$char_traits@D@std@@V?$allocator@D@2@@2@XZ
	?to_char_type@?$_Narrow_char_traits@DH@std@@SADH@Z
	?to_int_type@?$_Narrow_char_traits@DH@std@@SAHD@Z
	?underflow@?$basic_stringbuf@DU?$char_traits@D@std@@V?$allocator@D@2@@std@@MEAAHXZ
	?what@RtMidiError@@UEBAPEBDXZ
	?what@exception@std@@UEBAPEBDXZ
	__local_stdio_printf_options
	rtmidi_api_display_name
	rtmidi_api_name
	rtmidi_close_port
	rtmidi_compiled_api_by_name
	rtmidi_get_compiled_api
	rtmidi_get_port_count
	rtmidi_get_port_name
	rtmidi_get_version
	rtmidi_in_cancel_callback
	rtmidi_in_create
	rtmidi_in_create_default
	rtmidi_in_free
	rtmidi_in_get_current_api
	rtmidi_in_get_message
	rtmidi_in_ignore_types
	rtmidi_in_set_callback
	rtmidi_open_port
	rtmidi_open_virtual_port
	rtmidi_out_create
	rtmidi_out_create_default
	rtmidi_out_free
	rtmidi_out_get_current_api
	rtmidi_out_send_message
	snprintf
	vsnprintf
	wmemset
