EXPORTS 
	??_R0?AV?$_Iosb@H@std@@@8 	 DATA
	??_R0?AV?$basic_filebuf@DU?$char_traits@D@std@@@std@@@8 	 DATA
	??_R0?AV?$basic_ios@DU?$char_traits@D@std@@@std@@@8 	 DATA
	??_R0?AV?$basic_ofstream@DU?$char_traits@D@std@@@std@@@8 	 DATA
	??_R0?AV?$basic_ostream@DU?$char_traits@D@std@@@std@@@8 	 DATA
	??_R0?AV?$basic_streambuf@DU?$char_traits@D@std@@@std@@@8 	 DATA
	??_R0?AVKeySet@@@8 	 DATA
	??_R0?AVMIDI@@@8 	 DATA
	??_R0?AVbad_alloc@std@@@8 	 DATA
	??_R0?AVbad_array_new_length@std@@@8 	 DATA
	??_R0?AVbad_cast@std@@@8 	 DATA
	??_R0?AVexception@std@@@8 	 DATA
	??_R0?AVios_base@std@@@8 	 DATA
	??_R0?AVoActions@@@8 	 DATA
	?_OptionsStorage@?1??__local_stdio_printf_options@@9@4_KA 	 DATA
	?_Psave@?$_Facetptr@V?$codecvt@DDU_Mbstatet@@@std@@@std@@2PEBVfacet@locale@2@EB 	 DATA
	?_Stinit@?1??_Init@?$basic_filebuf@DU?$char_traits@D@std@@@std@@IEAAXPEAU_iobuf@@W4_Initfl@23@@Z@4U_Mbstatet@@A 	 DATA
	??$?0$$V@?$_Compressed_pair@V?$allocator@D@std@@V?$_String_val@U?$_Simple_types@D@std@@@2@$00@std@@QEAA@U_Zero_then_variadic_args_t@1@@Z
	??$?0$$V@?$_Compressed_pair@V?$allocator@V?$vector@VdevActions@@V?$allocator@VdevActions@@@std@@@std@@@std@@V?$_Deque_val@U?$_Deque_simple_types@V?$vector@VdevActions@@V?$allocator@VdevActions@@@std@@@std@@@std@@@2@$00@std@@QEAA@U_Zero_then_variadic_args_t@1@@Z
	??$?0$$V@?$_Compressed_pair@V?$allocator@VActions@@@std@@V?$_Vector_val@U?$_Simple_types@VActions@@@std@@@2@$00@std@@QEAA@U_Zero_then_variadic_args_t@1@@Z
	??$?0$$V@?$_Compressed_pair@V?$allocator@VModeType@@@std@@V?$_Vector_val@U?$_Simple_types@VModeType@@@std@@@2@$00@std@@QEAA@U_Zero_then_variadic_args_t@1@@Z
	??$?0$$V@?$_Compressed_pair@V?$allocator@W4Api@RtMidi@@@std@@V?$_Vector_val@U?$_Simple_types@W4Api@RtMidi@@@std@@@2@$00@std@@QEAA@U_Zero_then_variadic_args_t@1@@Z
	??$?0AEAPEAV?$tuple@P8MIDI@@EAAXXZPEAV1@@std@@@?$_Compressed_pair@U?$default_delete@V?$tuple@P8MIDI@@EAAXXZPEAV1@@std@@@std@@PEAV?$tuple@P8MIDI@@EAAXXZPEAV1@@2@$00@std@@QEAA@U_Zero_then_variadic_args_t@1@AEAPEAV?$tuple@P8MIDI@@EAAXXZPEAV1@@1@@Z
	??$?0AEAPEAV_Facet_base@std@@@?$_Compressed_pair@U?$default_delete@V_Facet_base@std@@@std@@PEAV_Facet_base@2@$00@std@@QEAA@U_Zero_then_variadic_args_t@1@AEAPEAV_Facet_base@1@@Z
	??$?0D@?$allocator@U_Container_proxy@std@@@std@@QEAA@AEBV?$allocator@D@1@@Z
	??$?0H$0A@@?$duration@_JU?$ratio@$00$0DOI@@std@@@chrono@std@@QEAA@AEBH@Z
	??$?0I$0A@@?$duration@_JU?$ratio@$00$0DOI@@std@@@chrono@std@@QEAA@AEBI@Z
	??$?0K$0A@@?$duration@_JU?$ratio@$00$0DOI@@std@@@chrono@std@@QEAA@AEBK@Z
	??$?0P8MIDI@@EAAXXZ@?$_Tuple_val@P8MIDI@@EAAXXZ@std@@QEAA@$$QEAP8MIDI@@EAAXXZ@Z
	??$?0P8MIDI@@EAAXXZPEAV0@$0A@@?$tuple@P8MIDI@@EAAXXZPEAV1@@std@@QEAA@$$QEAP8MIDI@@EAAXXZ$$QEAPEAV2@@Z
	??$?0P8MIDI@@EAAXXZPEAV0@$0A@@thread@std@@QEAA@$$QEAP8MIDI@@EAAXXZ$$QEAPEAV2@@Z
	??$?0PEAVMIDI@@@?$_Tuple_val@PEAVMIDI@@@std@@QEAA@$$QEAPEAVMIDI@@@Z
	??$?0U?$default_delete@V?$tuple@P8MIDI@@EAAXXZPEAV1@@std@@@std@@$0A@@?$unique_ptr@V?$tuple@P8MIDI@@EAAXXZPEAV1@@std@@U?$default_delete@V?$tuple@P8MIDI@@EAAXXZPEAV1@@std@@@2@@std@@QEAA@PEAV?$tuple@P8MIDI@@EAAXXZPEAV1@@1@@Z
	??$?0U?$default_delete@V_Facet_base@std@@@std@@$0A@@?$unique_ptr@V_Facet_base@std@@U?$default_delete@V_Facet_base@std@@@2@@std@@QEAA@PEAV_Facet_base@1@@Z
	??$?0U_Exact_args_t@std@@$0A@@?$tuple@$$V@std@@QEAA@U_Exact_args_t@1@@Z
	??$?0U_Exact_args_t@std@@P8MIDI@@EAAXXZPEAV2@$0A@@?$tuple@P8MIDI@@EAAXXZPEAV1@@std@@QEAA@U_Exact_args_t@1@$$QEAP8MIDI@@EAAXXZ$$QEAPEAV3@@Z
	??$?0U_Exact_args_t@std@@PEAVMIDI@@$$V$0A@@?$tuple@PEAVMIDI@@@std@@QEAA@U_Exact_args_t@1@$$QEAPEAVMIDI@@@Z
	??$?0V?$allocator@D@std@@$$V@?$_Compressed_pair@V?$allocator@D@std@@V?$_String_val@U?$_Simple_types@D@std@@@2@$00@std@@QEAA@U_One_then_variadic_args_t@1@$$QEAV?$allocator@D@1@@Z
	??$?0V?$allocator@VActions@@@std@@$$V@?$_Compressed_pair@V?$allocator@VActions@@@std@@V?$_Vector_val@U?$_Simple_types@VActions@@@std@@@2@$00@std@@QEAA@U_One_then_variadic_args_t@1@$$QEAV?$allocator@VActions@@@1@@Z
	??$?0V?$allocator@VdevActions@@@std@@$$V@?$_Compressed_pair@V?$allocator@VdevActions@@@std@@V?$_Vector_val@U?$_Simple_types@VdevActions@@@std@@@2@$00@std@@QEAA@U_One_then_variadic_args_t@1@$$QEAV?$allocator@VdevActions@@@1@@Z
	??$?0V?$vector@VdevActions@@V?$allocator@VdevActions@@@std@@@std@@@?$allocator@PEAV?$vector@VdevActions@@V?$allocator@VdevActions@@@std@@@std@@@std@@QEAA@AEBV?$allocator@V?$vector@VdevActions@@V?$allocator@VdevActions@@@std@@@std@@@1@@Z
	??$?0V?$vector@VdevActions@@V?$allocator@VdevActions@@@std@@@std@@@?$allocator@U_Container_proxy@std@@@std@@QEAA@AEBV?$allocator@V?$vector@VdevActions@@V?$allocator@VdevActions@@@std@@@std@@@1@@Z
	??$?0VActions@@@?$allocator@U_Container_proxy@std@@@std@@QEAA@AEBV?$allocator@VActions@@@1@@Z
	??$?0VModeType@@@?$allocator@U_Container_proxy@std@@@std@@QEAA@AEBV?$allocator@VModeType@@@1@@Z
	??$?0VdevActions@@@?$allocator@U_Container_proxy@std@@@std@@QEAA@AEBV?$allocator@VdevActions@@@1@@Z
	??$?0Vraw_midi@@@?$allocator@U_Container_proxy@std@@@std@@QEAA@AEBV?$allocator@Vraw_midi@@@1@@Z
	??$?0W4Api@RtMidi@@@?$allocator@U_Container_proxy@std@@@std@@QEAA@AEBV?$allocator@W4Api@RtMidi@@@1@@Z
	??$?0_J$0A@@?$duration@_JU?$ratio@$00$0DLJKMKAA@@std@@@chrono@std@@QEAA@AEB_J@Z
	??$?0_J$0A@@?$duration@_JU?$ratio@$00$0DOI@@std@@@chrono@std@@QEAA@AEB_J@Z
	??$?0_JU?$ratio@$00$0DOI@@std@@$0A@@?$duration@_JU?$ratio@$00$0DLJKMKAA@@std@@@chrono@std@@QEAA@AEBV?$duration@_JU?$ratio@$00$0DOI@@std@@@12@@Z
	??$?6DU?$char_traits@D@std@@V?$allocator@D@1@@std@@YAAEAV?$basic_ostream@DU?$char_traits@D@std@@@0@AEAV10@AEBV?$basic_string@DU?$char_traits@D@std@@V?$allocator@D@2@@0@@Z
	??$?6U?$char_traits@D@std@@@std@@YAAEAV?$basic_ostream@DU?$char_traits@D@std@@@0@AEAV10@D@Z
	??$?6U?$char_traits@D@std@@@std@@YAAEAV?$basic_ostream@DU?$char_traits@D@std@@@0@AEAV10@PEBD@Z
	??$?GUsteady_clock@chrono@std@@V?$duration@_JU?$ratio@$00$0DLJKMKAA@@std@@@12@V312@@chrono@std@@YA?AV?$duration@_JU?$ratio@$00$0DLJKMKAA@@std@@@01@AEBV?$time_point@Usteady_clock@chrono@std@@V?$duration@_JU?$ratio@$00$0DLJKMKAA@@std@@@23@@01@0@Z
	??$?GUsteady_clock@chrono@std@@V?$duration@_JU?$ratio@$00$0DLJKMKAA@@std@@@12@_JU?$ratio@$00$0DOI@@2@@chrono@std@@YA?AV?$time_point@Usteady_clock@chrono@std@@V?$duration@_JU?$ratio@$00$0DLJKMKAA@@std@@@23@@01@AEBV201@AEBV?$duration@_JU?$ratio@$00$0DOI@@std@@@01@@Z
	??$?G_JU?$ratio@$00$0DLJKMKAA@@std@@_JU01@@chrono@std@@YA?AV?$duration@_JU?$ratio@$00$0DLJKMKAA@@std@@@01@AEBV201@0@Z
	??$?G_JU?$ratio@$00$0DLJKMKAA@@std@@_JU?$ratio@$00$0DOI@@1@@chrono@std@@YA?AV?$duration@_JU?$ratio@$00$0DLJKMKAA@@std@@@01@AEBV201@AEBV?$duration@_JU?$ratio@$00$0DOI@@std@@@01@@Z
	??$?__MUsteady_clock@chrono@std@@V?$duration@_JU?$ratio@$00$0DLJKMKAA@@std@@@12@V312@@chrono@std@@YA?A_PAEBV?$time_point@Usteady_clock@chrono@std@@V?$duration@_JU?$ratio@$00$0DLJKMKAA@@std@@@23@@01@0@Z
	??$?__M_JU?$ratio@$00$0DLJKMKAA@@std@@_JU01@@chrono@std@@YA?A_PAEBV?$duration@_JU?$ratio@$00$0DLJKMKAA@@std@@@01@0@Z
	??$?__M_JU?$ratio@$00$0DLJKMKAA@@std@@_JU?$ratio@$00$0DOI@@1@@chrono@std@@YA?A_PAEBV?$duration@_JU?$ratio@$00$0DLJKMKAA@@std@@@01@AEBV?$duration@_JU?$ratio@$00$0DOI@@std@@@01@@Z
	??$?__M_JU?$ratio@$00$0DOI@@std@@_JU01@@chrono@std@@YA?A_PAEBV?$duration@_JU?$ratio@$00$0DOI@@std@@@01@0@Z
	??$?__M_JU?$ratio@$00$0DOI@@std@@_JU?$ratio@$00$0DLJKMKAA@@1@@chrono@std@@YA?A_PAEBV?$duration@_JU?$ratio@$00$0DOI@@std@@@01@AEBV?$duration@_JU?$ratio@$00$0DLJKMKAA@@std@@@01@@Z
	??$_Adl_verify_range@PEAPEAV?$vector@VdevActions@@V?$allocator@VdevActions@@@std@@@std@@PEAPEAV12@@std@@YAXAEBQEAPEAV?$vector@VdevActions@@V?$allocator@VdevActions@@@std@@@0@0@Z
	??$_Alloc_proxy@V?$allocator@U_Container_proxy@std@@@std@@@_Container_base12@std@@QEAAX$$QEAV?$allocator@U_Container_proxy@std@@@1@@Z
	??$_Allocate@$0BA@U_Default_allocate_traits@std@@$0A@@std@@YAPEAX_K@Z
	??$_Allocate_at_least_helper@V?$allocator@D@std@@@std@@YAPEADAEAV?$allocator@D@0@AEA_K@Z
	??$_Allocate_at_least_helper@V?$allocator@PEAV?$vector@VdevActions@@V?$allocator@VdevActions@@@std@@@std@@@std@@@std@@YAPEAPEAV?$vector@VdevActions@@V?$allocator@VdevActions@@@std@@@0@AEAV?$allocator@PEAV?$vector@VdevActions@@V?$allocator@VdevActions@@@std@@@std@@@0@AEA_K@Z
	??$_Allocate_at_least_helper@V?$allocator@VActions@@@std@@@std@@YAPEAVActions@@AEAV?$allocator@VActions@@@0@AEA_K@Z
	??$_Allocate_at_least_helper@V?$allocator@VdevActions@@@std@@@std@@YAPEAVdevActions@@AEAV?$allocator@VdevActions@@@0@AEA_K@Z
	??$_Allocate_for_capacity@$0A@@?$basic_string@DU?$char_traits@D@std@@V?$allocator@D@2@@std@@CAPEADAEAV?$allocator@D@1@AEA_K@Z
	??$_Allocate_manually_vector_aligned@U_Default_allocate_traits@std@@@std@@YAPEAX_K@Z
	??$_Assign_counted_range@PEAVActions@@@?$vector@VActions@@V?$allocator@VActions@@@std@@@std@@AEAAXPEAVActions@@_K@Z
	??$_Assign_counted_range@PEAVdevActions@@@?$vector@VdevActions@@V?$allocator@VdevActions@@@std@@@std@@AEAAXPEAVdevActions@@_K@Z
	??$_Atomic_address_as@DU?$_Atomic_padded@_N@std@@@std@@YAPECDAEAU?$_Atomic_padded@_N@0@@Z
	??$_Atomic_address_as@DU?$_Atomic_padded@_N@std@@@std@@YAPEDDAEBU?$_Atomic_padded@_N@0@@Z
	??$_Atomic_reinterpret_as@D_N@std@@YADAEB_N@Z
	??$_Construct@$00PEBD@?$basic_string@DU?$char_traits@D@std@@V?$allocator@D@2@@std@@AEAAXQEBD_K@Z
	??$_Construct@$01PEBD@?$basic_string@DU?$char_traits@D@std@@V?$allocator@D@2@@std@@AEAAXQEBD_K@Z
	??$_Construct_in_place@PEADAEBQEAD@std@@YAXAEAPEADAEBQEAD@Z
	??$_Construct_in_place@PEAV?$vector@VdevActions@@V?$allocator@VdevActions@@@std@@@std@@AEAPEAV12@@std@@YAXAEAPEAV?$vector@VdevActions@@V?$allocator@VdevActions@@@std@@@0@0@Z
	??$_Construct_in_place@U_Container_proxy@std@@PEAU_Container_base12@2@@std@@YAXAEAU_Container_proxy@0@$$QEAPEAU_Container_base12@0@@Z
	??$_Construct_n@AEBQEAVActions@@AEBQEAV1@@?$vector@VActions@@V?$allocator@VActions@@@std@@@std@@AEAAX_KAEBQEAVActions@@1@Z
	??$_Construct_n@AEBQEAVdevActions@@AEBQEAV1@@?$vector@VdevActions@@V?$allocator@VdevActions@@@std@@@std@@AEAAX_KAEBQEAVdevActions@@1@Z
	??$_Convert_size@_K_K@std@@YA_K_K@Z
	??$_Copy_memmove@PEAPEAV?$vector@VdevActions@@V?$allocator@VdevActions@@@std@@@std@@PEAPEAV12@@std@@YAPEAPEAV?$vector@VdevActions@@V?$allocator@VdevActions@@@std@@@0@PEAPEAV10@00@Z
	??$_Copy_n_unchecked4@PEAVActions@@_KPEAV1@@std@@YAPEAVActions@@PEAV1@_K0@Z
	??$_Copy_n_unchecked4@PEAVdevActions@@_KPEAV1@@std@@YAPEAVdevActions@@PEAV1@_K0@Z
	??$_Deallocate@$0BA@$0A@@std@@YAXPEAX_K@Z
	??$_Deallocate_plain@V?$allocator@U_Container_proxy@std@@@std@@@std@@YAXAEAV?$allocator@U_Container_proxy@std@@@0@QEAU_Container_proxy@0@@Z
	??$_Delete_plain_internal@V?$allocator@U_Container_proxy@std@@@std@@@std@@YAXAEAV?$allocator@U_Container_proxy@std@@@0@QEAU_Container_proxy@0@@Z
	??$_Destroy_in_place@PEAD@std@@YAXAEAPEAD@Z
	??$_Destroy_in_place@PEAV?$vector@VdevActions@@V?$allocator@VdevActions@@@std@@@std@@@std@@YAXAEAPEAV?$vector@VdevActions@@V?$allocator@VdevActions@@@std@@@0@@Z
	??$_Destroy_range@PEAPEAV?$vector@VdevActions@@V?$allocator@VdevActions@@@std@@@std@@PEAPEAV12@@std@@YAXPEAPEAV?$vector@VdevActions@@V?$allocator@VdevActions@@@std@@@0@QEAPEAV10@@Z
	??$_Destroy_range@V?$allocator@VActions@@@std@@@std@@YAXPEAVActions@@QEAV1@AEAV?$allocator@VActions@@@0@@Z
	??$_Destroy_range@V?$allocator@VModeType@@@std@@@std@@YAXPEAVModeType@@QEAV1@AEAV?$allocator@VModeType@@@0@@Z
	??$_Destroy_range@V?$allocator@VdevActions@@@std@@@std@@YAXPEAVdevActions@@QEAV1@AEAV?$allocator@VdevActions@@@0@@Z
	??$_Destroy_range@V?$allocator@Vraw_midi@@@std@@@std@@YAXPEAVraw_midi@@QEAV1@AEAV?$allocator@Vraw_midi@@@0@@Z
	??$_Destroy_range@V?$allocator@W4Api@RtMidi@@@std@@@std@@YAXPEAW4Api@RtMidi@@QEAW412@AEAV?$allocator@W4Api@RtMidi@@@0@@Z
	??$_Emplace_back@AEAPEAV?$vector@VdevActions@@V?$allocator@VdevActions@@@std@@@std@@@?$_Uninitialized_backout@PEAPEAV?$vector@VdevActions@@V?$allocator@VdevActions@@@std@@@std@@@std@@QEAAXAEAPEAV?$vector@VdevActions@@V?$allocator@VdevActions@@@std@@@1@@Z
	??$_Emplace_back@AEAVActions@@@?$_Uninitialized_backout_al@V?$allocator@VActions@@@std@@@std@@QEAAXAEAVActions@@@Z
	??$_Emplace_back@AEAVdevActions@@@?$_Uninitialized_backout_al@V?$allocator@VdevActions@@@std@@@std@@QEAAXAEAVdevActions@@@Z
	??$_Emplace_back_internal@AEBV?$vector@VdevActions@@V?$allocator@VdevActions@@@std@@@std@@@?$deque@V?$vector@VdevActions@@V?$allocator@VdevActions@@@std@@@std@@V?$allocator@V?$vector@VdevActions@@V?$allocator@VdevActions@@@std@@@std@@@2@@std@@AEAAXAEBV?$vector@VdevActions@@V?$allocator@VdevActions@@@std@@@1@@Z
	??$_Fgetc@D@std@@YA_NAEADPEAU_iobuf@@@Z
	??$_Fputc@D@std@@YA_NDPEAU_iobuf@@@Z
	??$_Get_size_of_n@$00@std@@YA_K_K@Z
	??$_Get_size_of_n@$07@std@@YA_K_K@Z
	??$_Get_size_of_n@$0BA@@std@@YA_K_K@Z
	??$_Get_size_of_n@$0CA@@std@@YA_K_K@Z
	??$_Get_size_of_n@$0IA@@std@@YA_K_K@Z
	??$_Get_size_of_n@$0KI@@std@@YA_K_K@Z
	??$_Get_unwrapped@AEBQEAPEAV?$vector@VdevActions@@V?$allocator@VdevActions@@@std@@@std@@@std@@YA?A_TAEBQEAPEAV?$vector@VdevActions@@V?$allocator@VdevActions@@@std@@@0@@Z
	??$_Get_unwrapped@PEAVActions@@@std@@YA?A_T$$QEAPEAVActions@@@Z
	??$_Get_unwrapped@PEAVdevActions@@@std@@YA?A_T$$QEAPEAVdevActions@@@Z
	??$_Get_unwrapped_n@AEAPEAPEAV?$vector@VdevActions@@V?$allocator@VdevActions@@@std@@@std@@_J@std@@YA?A_TAEAPEAPEAV?$vector@VdevActions@@V?$allocator@VdevActions@@@std@@@0@_J@Z
	??$_Getvals@_W@?$time_get@DV?$istreambuf_iterator@DU?$char_traits@D@std@@@std@@@std@@IEAAX_WAEBV_Locinfo@1@@Z
	??$_Getvals@_W@?$time_get@_WV?$istreambuf_iterator@_WU?$char_traits@_W@std@@@std@@@std@@IEAAX_WAEBV_Locinfo@1@@Z
	??$_Idl_distance@PEAPEAV?$vector@VdevActions@@V?$allocator@VdevActions@@@std@@@std@@PEAPEAV12@@std@@YA?A_PAEBQEAPEAV?$vector@VdevActions@@V?$allocator@VdevActions@@@std@@@0@0@Z
	??$_Insert_string@DU?$char_traits@D@std@@_K@std@@YAAEAV?$basic_ostream@DU?$char_traits@D@std@@@0@AEAV10@QEBD_K@Z
	??$_Invoke@V?$tuple@P8MIDI@@EAAXXZPEAV1@@std@@$0A@$00@thread@std@@CAIPEAX@Z
	??$_Maklocstr@D@std@@YAPEADPEBDPEADAEBU_Cvtvec@@@Z
	??$_Maklocstr@_W@std@@YAPEA_WPEBDPEA_WAEBU_Cvtvec@@@Z
	??$_Pocca@V?$allocator@D@std@@@std@@YAXAEAV?$allocator@D@0@AEBV10@@Z
	??$_Pocca@V?$allocator@VActions@@@std@@@std@@YAXAEAV?$allocator@VActions@@@0@AEBV10@@Z
	??$_Pocca@V?$allocator@VdevActions@@@std@@@std@@YAXAEAV?$allocator@VdevActions@@@0@AEBV10@@Z
	??$_Reallocate_for@V<lambda_1>@?1??assign@?$basic_string@DU?$char_traits@D@std@@V?$allocator@D@2@@std@@QEAAAEAV34@QEBD_K@Z@PEBD@?$basic_string@DU?$char_traits@D@std@@V?$allocator@D@2@@std@@AEAAAEAV01@_KV<lambda_1>@?1??assign@01@QEAAAEAV01@QEBD0@Z@PEBD@Z
	??$_Reallocate_grow_by@V<lambda_1>@?1??push_back@?$basic_string@DU?$char_traits@D@std@@V?$allocator@D@2@@std@@QEAAXD@Z@D@?$basic_string@DU?$char_traits@D@std@@V?$allocator@D@2@@std@@AEAAAEAV01@_KV<lambda_1>@?1??push_back@01@QEAAXD@Z@D@Z
	??$_Seek_wrapped@PEAPEAV?$vector@VdevActions@@V?$allocator@VdevActions@@@std@@@std@@PEAPEAV12@@std@@YAXAEAPEAPEAV?$vector@VdevActions@@V?$allocator@VdevActions@@@std@@@0@$$QEAPEAPEAV10@@Z
	??$_Start@P8MIDI@@EAAXXZPEAV1@@thread@std@@AEAAX$$QEAP8MIDI@@EAAXXZ$$QEAPEAV2@@Z
	??$_To_absolute_time@_JU?$ratio@$00$0DOI@@std@@@std@@YA?A_PAEBV?$duration@_JU?$ratio@$00$0DOI@@std@@@chrono@0@@Z
	??$_To_address@PEAPEAV?$vector@VdevActions@@V?$allocator@VdevActions@@@std@@@std@@@std@@YA?A_PAEBQEAPEAV?$vector@VdevActions@@V?$allocator@VdevActions@@@std@@@0@@Z
	??$_Traits_compare@U?$char_traits@D@std@@@std@@YAHQEBD_K01@Z
	??$_Unfancy@D@std@@YAPEADPEAD@Z
	??$_Unfancy@U_Container_proxy@std@@@std@@YAPEAU_Container_proxy@0@PEAU10@@Z
	??$_Unfancy@V?$vector@VdevActions@@V?$allocator@VdevActions@@@std@@@std@@@std@@YAPEAV?$vector@VdevActions@@V?$allocator@VdevActions@@@std@@@0@PEAV10@@Z
	??$_Unfancy@VActions@@@std@@YAPEAVActions@@PEAV1@@Z
	??$_Unfancy@VModeType@@@std@@YAPEAVModeType@@PEAV1@@Z
	??$_Unfancy@VdevActions@@@std@@YAPEAVdevActions@@PEAV1@@Z
	??$_Unfancy@Vraw_midi@@@std@@YAPEAVraw_midi@@PEAV1@@Z
	??$_Ungetc@D@std@@YA_NAEBDPEAU_iobuf@@@Z
	??$_Uninitialized_copy@PEAVActions@@PEAV1@V?$allocator@VActions@@@std@@@std@@YAPEAVActions@@PEAV1@00AEAV?$allocator@VActions@@@0@@Z
	??$_Uninitialized_copy@PEAVdevActions@@PEAV1@V?$allocator@VdevActions@@@std@@@std@@YAPEAVdevActions@@PEAV1@00AEAV?$allocator@VdevActions@@@0@@Z
	??$_Uninitialized_copy_n@PEAVActions@@V?$allocator@VActions@@@std@@@std@@YAPEAVActions@@PEAV1@_K0AEAV?$allocator@VActions@@@0@@Z
	??$_Uninitialized_copy_n@PEAVdevActions@@V?$allocator@VdevActions@@@std@@@std@@YAPEAVdevActions@@PEAV1@_K0AEAV?$allocator@VdevActions@@@0@@Z
	??$_Uninitialized_copy_unchecked@PEAPEAV?$vector@VdevActions@@V?$allocator@VdevActions@@@std@@@std@@PEAPEAV12@@std@@YAPEAPEAV?$vector@VdevActions@@V?$allocator@VdevActions@@@std@@@0@PEAPEAV10@QEAPEAV10@0@Z
	??$_Uninitialized_value_construct_n_unchecked1@PEAPEAV?$vector@VdevActions@@V?$allocator@VdevActions@@@std@@@std@@_K@std@@YAPEAPEAV?$vector@VdevActions@@V?$allocator@VdevActions@@@std@@@0@PEAPEAV10@_K@Z
	??$_Unwrap_iter@PEAVActions@@PEAV1@@ranges@std@@YA?A_T$$QEAPEAVActions@@@Z
	??$_Unwrap_iter@PEAVdevActions@@PEAV1@@ranges@std@@YA?A_T$$QEAPEAVdevActions@@@Z
	??$_Unwrap_sent@PEAVActions@@PEAV1@@ranges@std@@YA?A_T$$QEAPEAVActions@@@Z
	??$_Unwrap_sent@PEAVdevActions@@PEAV1@@ranges@std@@YA?A_T$$QEAPEAVdevActions@@@Z
	??$_Verify_range@PEAV?$vector@VdevActions@@V?$allocator@VdevActions@@@std@@@std@@@std@@YAXQEBQEAV?$vector@VdevActions@@V?$allocator@VdevActions@@@std@@@0@0@Z
	??$_Zero_range@PEAPEAV?$vector@VdevActions@@V?$allocator@VdevActions@@@std@@@std@@@std@@YAPEAPEAV?$vector@VdevActions@@V?$allocator@VdevActions@@@std@@@0@QEAPEAV10@0@Z
	??$addressof@$$CBV?$basic_string@DU?$char_traits@D@std@@V?$allocator@D@2@@std@@@std@@YAPEBV?$basic_string@DU?$char_traits@D@std@@V?$allocator@D@2@@0@AEBV10@@Z
	??$addressof@$$CBV?$codecvt@DDU_Mbstatet@@@std@@@std@@YAPEBV?$codecvt@DDU_Mbstatet@@@0@AEBV10@@Z
	??$addressof@$$CBV?$vector@VActions@@V?$allocator@VActions@@@std@@@std@@@std@@YAPEBV?$vector@VActions@@V?$allocator@VActions@@@std@@@0@AEBV10@@Z
	??$addressof@$$CBV?$vector@VdevActions@@V?$allocator@VdevActions@@@std@@@std@@@std@@YAPEBV?$vector@VdevActions@@V?$allocator@VdevActions@@@std@@@0@AEBV10@@Z
	??$addressof@D@std@@YAPEADAEAD@Z
	??$addressof@PEAD@std@@YAPEAPEADAEAPEAD@Z
	??$addressof@PEAV?$vector@VdevActions@@V?$allocator@VdevActions@@@std@@@std@@@std@@YAPEAPEAV?$vector@VdevActions@@V?$allocator@VdevActions@@@std@@@0@AEAPEAV10@@Z
	??$addressof@U_Container_base12@std@@@std@@YAPEAU_Container_base12@0@AEAU10@@Z
	??$addressof@U_Container_proxy@std@@@std@@YAPEAU_Container_proxy@0@AEAU10@@Z
	??$addressof@V?$_Vector_val@U?$_Simple_types@VActions@@@std@@@std@@@std@@YAPEAV?$_Vector_val@U?$_Simple_types@VActions@@@std@@@0@AEAV10@@Z
	??$addressof@V?$_Vector_val@U?$_Simple_types@VModeType@@@std@@@std@@@std@@YAPEAV?$_Vector_val@U?$_Simple_types@VModeType@@@std@@@0@AEAV10@@Z
	??$addressof@V?$_Vector_val@U?$_Simple_types@VdevActions@@@std@@@std@@@std@@YAPEAV?$_Vector_val@U?$_Simple_types@VdevActions@@@std@@@0@AEAV10@@Z
	??$addressof@V?$_Vector_val@U?$_Simple_types@Vraw_midi@@@std@@@std@@@std@@YAPEAV?$_Vector_val@U?$_Simple_types@Vraw_midi@@@std@@@0@AEAV10@@Z
	??$addressof@V?$basic_filebuf@DU?$char_traits@D@std@@@std@@@std@@YAPEAV?$basic_filebuf@DU?$char_traits@D@std@@@0@AEAV10@@Z
	??$ceil@V?$duration@_JU?$ratio@$00$0DOI@@std@@@chrono@std@@_JU?$ratio@$00$0DLJKMKAA@@3@$0A@@chrono@std@@YA?AV?$duration@_JU?$ratio@$00$0DOI@@std@@@01@AEBV?$duration@_JU?$ratio@$00$0DLJKMKAA@@std@@@01@@Z
	??$construct@V?$vector@VdevActions@@V?$allocator@VdevActions@@@std@@@std@@AEBV12@@?$_Default_allocator_traits@V?$allocator@V?$vector@VdevActions@@V?$allocator@VdevActions@@@std@@@std@@@std@@@std@@SAXAEAV?$allocator@V?$vector@VdevActions@@V?$allocator@VdevActions@@@std@@@std@@@1@QEAV?$vector@VdevActions@@V?$allocator@VdevActions@@@std@@@1@AEBV31@@Z
	??$construct@VActions@@AEAV1@@?$_Default_allocator_traits@V?$allocator@VActions@@@std@@@std@@SAXAEAV?$allocator@VActions@@@1@QEAVActions@@AEAV3@@Z
	??$construct@VdevActions@@AEAV1@@?$_Default_allocator_traits@V?$allocator@VdevActions@@@std@@@std@@SAXAEAV?$allocator@VdevActions@@@1@QEAVdevActions@@AEAV3@@Z
	??$construct_at@D$$V$0A@@std@@YAPEADQEAD@Z
	??$construct_at@DAEBD$0A@@std@@YAPEADQEADAEBD@Z
	??$construct_at@PEADAEBQEAD$0A@@std@@YAPEAPEADQEAPEADAEBQEAD@Z
	??$construct_at@PEAV?$vector@VdevActions@@V?$allocator@VdevActions@@@std@@@std@@AEAPEAV12@$0A@@std@@YAPEAPEAV?$vector@VdevActions@@V?$allocator@VdevActions@@@std@@@0@QEAPEAV10@AEAPEAV10@@Z
	??$construct_at@U_Container_proxy@std@@PEAU_Container_base12@2@$0A@@std@@YAPEAU_Container_proxy@0@QEAU10@$$QEAPEAU_Container_base12@0@@Z
	??$construct_at@V?$vector@VdevActions@@V?$allocator@VdevActions@@@std@@@std@@AEBV12@$0A@@std@@YAPEAV?$vector@VdevActions@@V?$allocator@VdevActions@@@std@@@0@QEAV10@AEBV10@@Z
	??$construct_at@VActions@@AEAV1@$0A@@std@@YAPEAVActions@@QEAV1@AEAV1@@Z
	??$construct_at@VdevActions@@AEAV1@$0A@@std@@YAPEAVdevActions@@QEAV1@AEAV1@@Z
	??$destroy@V?$vector@VdevActions@@V?$allocator@VdevActions@@@std@@@std@@@?$_Default_allocator_traits@V?$allocator@V?$vector@VdevActions@@V?$allocator@VdevActions@@@std@@@std@@@std@@@std@@SAXAEAV?$allocator@V?$vector@VdevActions@@V?$allocator@VdevActions@@@std@@@std@@@1@QEAV?$vector@VdevActions@@V?$allocator@VdevActions@@@std@@@1@@Z
	??$destroy@VActions@@@?$_Default_allocator_traits@V?$allocator@VActions@@@std@@@std@@SAXAEAV?$allocator@VActions@@@1@QEAVActions@@@Z
	??$destroy@VModeType@@@?$_Default_allocator_traits@V?$allocator@VModeType@@@std@@@std@@SAXAEAV?$allocator@VModeType@@@1@QEAVModeType@@@Z
	??$destroy@VdevActions@@@?$_Default_allocator_traits@V?$allocator@VdevActions@@@std@@@std@@SAXAEAV?$allocator@VdevActions@@@1@QEAVdevActions@@@Z
	??$destroy@Vraw_midi@@@?$_Default_allocator_traits@V?$allocator@Vraw_midi@@@std@@@std@@SAXAEAV?$allocator@Vraw_midi@@@1@QEAVraw_midi@@@Z
	??$destroy_at@V?$vector@VdevActions@@V?$allocator@VdevActions@@@std@@@std@@@std@@YAXQEAV?$vector@VdevActions@@V?$allocator@VdevActions@@@std@@@0@@Z
	??$destroy_at@VActions@@@std@@YAXQEAVActions@@@Z
	??$destroy_at@VModeType@@@std@@YAXQEAVModeType@@@Z
	??$destroy_at@VdevActions@@@std@@YAXQEAVdevActions@@@Z
	??$destroy_at@Vraw_midi@@@std@@YAXQEAVraw_midi@@@Z
	??$duration_cast@V?$duration@_JU?$ratio@$00$0DLJKMKAA@@std@@@chrono@std@@_JU?$ratio@$00$0DOI@@3@$0A@@chrono@std@@YA?AV?$duration@_JU?$ratio@$00$0DLJKMKAA@@std@@@01@AEBV?$duration@_JU?$ratio@$00$0DOI@@std@@@01@@Z
	??$duration_cast@V?$duration@_JU?$ratio@$00$0DOI@@std@@@chrono@std@@_JU?$ratio@$00$0DLJKMKAA@@3@$0A@@chrono@std@@YA?AV?$duration@_JU?$ratio@$00$0DOI@@std@@@01@AEBV?$duration@_JU?$ratio@$00$0DLJKMKAA@@std@@@01@@Z
	??$endl@DU?$char_traits@D@std@@@std@@YAAEAV?$basic_ostream@DU?$char_traits@D@std@@@0@AEAV10@@Z
	??$exchange@PEAU_Container_proxy@std@@$$T@std@@YAPEAU_Container_proxy@0@AEAPEAU10@$$QEA$$T@Z
	??$exchange@PEAU_Iterator_base12@std@@$$T@std@@YAPEAU_Iterator_base12@0@AEAPEAU10@$$QEA$$T@Z
	??$exchange@PEAV?$tuple@P8MIDI@@EAAXXZPEAV1@@std@@$$T@std@@YAPEAV?$tuple@P8MIDI@@EAAXXZPEAV1@@0@AEAPEAV10@$$QEA$$T@Z
	??$exchange@PEAV_Facet_base@std@@$$T@std@@YAPEAV_Facet_base@0@AEAPEAV10@$$QEA$$T@Z
	??$get@$00P8MIDI@@EAAXXZPEAV1@@std@@YAAEAPEAVMIDI@@AEAV?$tuple@P8MIDI@@EAAXXZPEAV1@@0@@Z
	??$get@$0A@P8MIDI@@EAAXXZPEAV1@@std@@YAAEAP8MIDI@@EAAXXZAEAV?$tuple@P8MIDI@@EAAXXZPEAV1@@0@@Z
	??$invoke@P8MIDI@@EAAXXZPEAV1@$$V@std@@YAX$$QEAP8MIDI@@EAAXXZ$$QEAPEAV1@@Z
	??$make_unique@V?$tuple@P8MIDI@@EAAXXZPEAV1@@std@@P8MIDI@@EAAXXZPEAV3@$0A@@std@@YA?AV?$unique_ptr@V?$tuple@P8MIDI@@EAAXXZPEAV1@@std@@U?$default_delete@V?$tuple@P8MIDI@@EAAXXZPEAV1@@std@@@2@@0@$$QEAP8MIDI@@EAAXXZ$$QEAPEAV2@@Z
	??$max@_K@std@@YAAEB_KAEB_K0@Z
	??$min@_K@std@@YAAEB_KAEB_K0@Z
	??$sleep_for@_JU?$ratio@$00$0DOI@@std@@@this_thread@std@@YAXAEBV?$duration@_JU?$ratio@$00$0DOI@@std@@@chrono@1@@Z
	??$sleep_until@Usteady_clock@chrono@std@@V?$duration@_JU?$ratio@$00$0DLJKMKAA@@std@@@23@@this_thread@std@@YAXAEBV?$time_point@Usteady_clock@chrono@std@@V?$duration@_JU?$ratio@$00$0DLJKMKAA@@std@@@23@@chrono@1@@Z
	??$to_address@PEAV?$vector@VdevActions@@V?$allocator@VdevActions@@@std@@@std@@@std@@YAPEAPEAV?$vector@VdevActions@@V?$allocator@VdevActions@@@std@@@0@QEAPEAV10@@Z
	??$uninitialized_copy@PEAPEAV?$vector@VdevActions@@V?$allocator@VdevActions@@@std@@@std@@PEAPEAV12@@std@@YAPEAPEAV?$vector@VdevActions@@V?$allocator@VdevActions@@@std@@@0@QEAPEAV10@0PEAPEAV10@@Z
	??$use_facet@V?$codecvt@DDU_Mbstatet@@@std@@@std@@YAAEBV?$codecvt@DDU_Mbstatet@@@0@AEBVlocale@0@@Z
	??0?$_Container_proxy_ptr12@V?$allocator@U_Container_proxy@std@@@std@@@std@@QEAA@AEAV?$allocator@U_Container_proxy@std@@@1@AEAU_Container_base12@1@@Z
	??0?$_Deque_val@U?$_Deque_simple_types@V?$vector@VdevActions@@V?$allocator@VdevActions@@@std@@@std@@@std@@@std@@QEAA@XZ
	??0?$_String_val@U?$_Simple_types@D@std@@@std@@QEAA@XZ
	??0?$_Uninitialized_backout@PEAPEAV?$vector@VdevActions@@V?$allocator@VdevActions@@@std@@@std@@@std@@QEAA@PEAPEAV?$vector@VdevActions@@V?$allocator@VdevActions@@@std@@@1@@Z
	??0?$_Uninitialized_backout_al@V?$allocator@VActions@@@std@@@std@@QEAA@PEAVActions@@AEAV?$allocator@VActions@@@1@@Z
	??0?$_Uninitialized_backout_al@V?$allocator@VdevActions@@@std@@@std@@QEAA@PEAVdevActions@@AEAV?$allocator@VdevActions@@@1@@Z
	??0?$_Vector_const_iterator@V?$_Vector_val@U?$_Simple_types@VActions@@@std@@@std@@@std@@QEAA@AEBV01@@Z
	??0?$_Vector_const_iterator@V?$_Vector_val@U?$_Simple_types@VActions@@@std@@@std@@@std@@QEAA@PEAVActions@@PEBU_Container_base12@1@@Z
	??0?$_Vector_const_iterator@V?$_Vector_val@U?$_Simple_types@VModeType@@@std@@@std@@@std@@QEAA@AEBV01@@Z
	??0?$_Vector_const_iterator@V?$_Vector_val@U?$_Simple_types@VModeType@@@std@@@std@@@std@@QEAA@PEAVModeType@@PEBU_Container_base12@1@@Z
	??0?$_Vector_const_iterator@V?$_Vector_val@U?$_Simple_types@VdevActions@@@std@@@std@@@std@@QEAA@AEBV01@@Z
	??0?$_Vector_const_iterator@V?$_Vector_val@U?$_Simple_types@VdevActions@@@std@@@std@@@std@@QEAA@PEAVdevActions@@PEBU_Container_base12@1@@Z
	??0?$_Vector_const_iterator@V?$_Vector_val@U?$_Simple_types@Vraw_midi@@@std@@@std@@@std@@QEAA@AEBV01@@Z
	??0?$_Vector_const_iterator@V?$_Vector_val@U?$_Simple_types@Vraw_midi@@@std@@@std@@@std@@QEAA@PEAVraw_midi@@PEBU_Container_base12@1@@Z
	??0?$_Vector_iterator@V?$_Vector_val@U?$_Simple_types@VActions@@@std@@@std@@@std@@QEAA@AEBV01@@Z
	??0?$_Vector_iterator@V?$_Vector_val@U?$_Simple_types@VActions@@@std@@@std@@@std@@QEAA@PEAVActions@@PEBU_Container_base12@1@@Z
	??0?$_Vector_iterator@V?$_Vector_val@U?$_Simple_types@VModeType@@@std@@@std@@@std@@QEAA@AEBV01@@Z
	??0?$_Vector_iterator@V?$_Vector_val@U?$_Simple_types@VModeType@@@std@@@std@@@std@@QEAA@PEAVModeType@@PEBU_Container_base12@1@@Z
	??0?$_Vector_iterator@V?$_Vector_val@U?$_Simple_types@VdevActions@@@std@@@std@@@std@@QEAA@AEBV01@@Z
	??0?$_Vector_iterator@V?$_Vector_val@U?$_Simple_types@VdevActions@@@std@@@std@@@std@@QEAA@PEAVdevActions@@PEBU_Container_base12@1@@Z
	??0?$_Vector_iterator@V?$_Vector_val@U?$_Simple_types@Vraw_midi@@@std@@@std@@@std@@QEAA@AEBV01@@Z
	??0?$_Vector_iterator@V?$_Vector_val@U?$_Simple_types@Vraw_midi@@@std@@@std@@@std@@QEAA@PEAVraw_midi@@PEBU_Container_base12@1@@Z
	??0?$_Vector_val@U?$_Simple_types@VActions@@@std@@@std@@QEAA@XZ
	??0?$_Vector_val@U?$_Simple_types@VModeType@@@std@@@std@@QEAA@XZ
	??0?$_Vector_val@U?$_Simple_types@VdevActions@@@std@@@std@@QEAA@XZ
	??0?$_Vector_val@U?$_Simple_types@W4Api@RtMidi@@@std@@@std@@QEAA@XZ
	??0?$allocator@D@std@@QEAA@XZ
	??0?$allocator@V?$vector@VdevActions@@V?$allocator@VdevActions@@@std@@@std@@@std@@QEAA@XZ
	??0?$allocator@VActions@@@std@@QEAA@XZ
	??0?$allocator@VModeType@@@std@@QEAA@XZ
	??0?$allocator@W4Api@RtMidi@@@std@@QEAA@XZ
	??0?$atomic@_N@std@@QEAA@XZ
	??0?$basic_filebuf@DU?$char_traits@D@std@@@std@@QEAA@XZ
	??0?$basic_ofstream@DU?$char_traits@D@std@@@std@@QEAA@XZ
	??0?$basic_string@DU?$char_traits@D@std@@V?$allocator@D@2@@std@@QEAA@AEBV01@@Z
	??0?$basic_string@DU?$char_traits@D@std@@V?$allocator@D@2@@std@@QEAA@QEBD@Z
	??0?$basic_string@DU?$char_traits@D@std@@V?$allocator@D@2@@std@@QEAA@XZ
	??0?$deque@V?$vector@VdevActions@@V?$allocator@VdevActions@@@std@@@std@@V?$allocator@V?$vector@VdevActions@@V?$allocator@VdevActions@@@std@@@std@@@2@@std@@QEAA@XZ
	??0?$fpos@U_Mbstatet@@@std@@QEAA@U_Mbstatet@@_J@Z
	??0?$fpos@U_Mbstatet@@@std@@QEAA@_J@Z
	??0?$lock_guard@Vmutex@std@@@std@@QEAA@AEAVmutex@1@@Z
	??0?$queue@V?$vector@VdevActions@@V?$allocator@VdevActions@@@std@@@std@@V?$deque@V?$vector@VdevActions@@V?$allocator@VdevActions@@@std@@@std@@V?$allocator@V?$vector@VdevActions@@V?$allocator@VdevActions@@@std@@@std@@@2@@2@@std@@QEAA@XZ
	??0?$time_point@Usteady_clock@chrono@std@@V?$duration@_JU?$ratio@$00$0DLJKMKAA@@std@@@23@@chrono@std@@QEAA@AEBV?$duration@_JU?$ratio@$00$0DLJKMKAA@@std@@@12@@Z
	??0?$vector@VActions@@V?$allocator@VActions@@@std@@@std@@QEAA@AEBV01@@Z
	??0?$vector@VActions@@V?$allocator@VActions@@@std@@@std@@QEAA@XZ
	??0?$vector@VModeType@@V?$allocator@VModeType@@@std@@@std@@QEAA@XZ
	??0?$vector@VdevActions@@V?$allocator@VdevActions@@@std@@@std@@QEAA@AEBV01@@Z
	??0?$vector@W4Api@RtMidi@@V?$allocator@W4Api@RtMidi@@@std@@@std@@QEAA@XZ
	??0Actions@@QEAA@AEBV0@@Z
	??0MIDI@@QEAA@V?$basic_string@DU?$char_traits@D@std@@V?$allocator@D@2@@std@@V?$vector@Vraw_midi@@V?$allocator@Vraw_midi@@@std@@@2@@Z
	??0ModeType@@QEAA@AEBV0@@Z
	??0ModeType@@QEAA@XZ
	??0_Basic_container_proxy_ptr12@std@@IEAA@XZ
	??0_Bxty@?$_String_val@U?$_Simple_types@D@std@@@std@@QEAA@XZ
	??0_Container_base12@std@@QEAA@XZ
	??0_Container_proxy@std@@QEAA@PEAU_Container_base12@1@@Z
	??0_Iterator_base12@std@@QEAA@AEBU01@@Z
	??0_Iterator_base12@std@@QEAA@XZ
	??0_Mutex_base@std@@QEAA@H@Z
	??0_Sentry_base@?$basic_ostream@DU?$char_traits@D@std@@@std@@QEAA@AEAV12@@Z
	??0bad_alloc@std@@AEAA@QEBD@Z
	??0bad_alloc@std@@QEAA@AEBV01@@Z
	??0bad_array_new_length@std@@QEAA@AEBV01@@Z
	??0bad_array_new_length@std@@QEAA@XZ
	??0bad_cast@std@@QEAA@AEBV01@@Z
	??0bad_cast@std@@QEAA@XZ
	??0devActions@@QEAA@AEBV0@@Z
	??0exception@std@@QEAA@AEBV01@@Z
	??0exception@std@@QEAA@QEBDH@Z
	??0keyboardActions@@QEAA@AEBV0@@Z
	??0midiActions@@QEAA@XZ
	??0mutex@std@@QEAA@XZ
	??0sentry@?$basic_ostream@DU?$char_traits@D@std@@@std@@QEAA@AEAV12@@Z
	??1?$_Compressed_pair@V?$allocator@D@std@@V?$_String_val@U?$_Simple_types@D@std@@@2@$00@std@@QEAA@XZ
	??1?$_Container_proxy_ptr12@V?$allocator@U_Container_proxy@std@@@std@@@std@@QEAA@XZ
	??1?$_String_val@U?$_Simple_types@D@std@@@std@@QEAA@XZ
	??1?$_Tidy_guard@V?$vector@VActions@@V?$allocator@VActions@@@std@@@std@@@std@@QEAA@XZ
	??1?$_Tidy_guard@V?$vector@VdevActions@@V?$allocator@VdevActions@@@std@@@std@@@std@@QEAA@XZ
	??1?$_Uninitialized_backout@PEAPEAV?$vector@VdevActions@@V?$allocator@VdevActions@@@std@@@std@@@std@@QEAA@XZ
	??1?$_Uninitialized_backout_al@V?$allocator@VActions@@@std@@@std@@QEAA@XZ
	??1?$_Uninitialized_backout_al@V?$allocator@VdevActions@@@std@@@std@@QEAA@XZ
	??1?$_Vector_const_iterator@V?$_Vector_val@U?$_Simple_types@VActions@@@std@@@std@@@std@@QEAA@XZ
	??1?$_Vector_const_iterator@V?$_Vector_val@U?$_Simple_types@VModeType@@@std@@@std@@@std@@QEAA@XZ
	??1?$_Vector_const_iterator@V?$_Vector_val@U?$_Simple_types@VdevActions@@@std@@@std@@@std@@QEAA@XZ
	??1?$_Vector_const_iterator@V?$_Vector_val@U?$_Simple_types@Vraw_midi@@@std@@@std@@@std@@QEAA@XZ
	??1?$_Vector_iterator@V?$_Vector_val@U?$_Simple_types@VActions@@@std@@@std@@@std@@QEAA@XZ
	??1?$_Vector_iterator@V?$_Vector_val@U?$_Simple_types@VModeType@@@std@@@std@@@std@@QEAA@XZ
	??1?$_Vector_iterator@V?$_Vector_val@U?$_Simple_types@VdevActions@@@std@@@std@@@std@@QEAA@XZ
	??1?$_Vector_iterator@V?$_Vector_val@U?$_Simple_types@Vraw_midi@@@std@@@std@@@std@@QEAA@XZ
	??1?$basic_filebuf@DU?$char_traits@D@std@@@std@@UEAA@XZ
	??1?$basic_ofstream@DU?$char_traits@D@std@@@std@@UEAA@XZ
	??1?$basic_string@DU?$char_traits@D@std@@V?$allocator@D@2@@std@@QEAA@XZ
	??1?$deque@V?$vector@VdevActions@@V?$allocator@VdevActions@@@std@@@std@@V?$allocator@V?$vector@VdevActions@@V?$allocator@VdevActions@@@std@@@std@@@2@@std@@QEAA@XZ
	??1?$lock_guard@Vmutex@std@@@std@@QEAA@XZ
	??1?$queue@V?$vector@VdevActions@@V?$allocator@VdevActions@@@std@@@std@@V?$deque@V?$vector@VdevActions@@V?$allocator@VdevActions@@@std@@@std@@V?$allocator@V?$vector@VdevActions@@V?$allocator@VdevActions@@@std@@@std@@@2@@2@@std@@QEAA@XZ
	??1?$unique_ptr@V?$tuple@P8MIDI@@EAAXXZPEAV1@@std@@U?$default_delete@V?$tuple@P8MIDI@@EAAXXZPEAV1@@std@@@2@@std@@QEAA@XZ
	??1?$unique_ptr@V_Facet_base@std@@U?$default_delete@V_Facet_base@std@@@2@@std@@QEAA@XZ
	??1?$vector@VActions@@V?$allocator@VActions@@@std@@@std@@QEAA@XZ
	??1?$vector@VModeType@@V?$allocator@VModeType@@@std@@@std@@QEAA@XZ
	??1?$vector@VdevActions@@V?$allocator@VdevActions@@@std@@@std@@QEAA@XZ
	??1?$vector@Vraw_midi@@V?$allocator@Vraw_midi@@@std@@@std@@QEAA@XZ
	??1?$vector@W4Api@RtMidi@@V?$allocator@W4Api@RtMidi@@@std@@@std@@QEAA@XZ
	??1Actions@@QEAA@XZ
	??1MIDI@@QEAA@XZ
	??1ModeType@@QEAA@XZ
	??1_Bxty@?$_String_val@U?$_Simple_types@D@std@@@std@@QEAA@XZ
	??1_Iterator_base12@std@@QEAA@XZ
	??1_Mutex_base@std@@QEAA@XZ
	??1_Sentry_base@?$basic_ostream@DU?$char_traits@D@std@@@std@@QEAA@XZ
	??1bad_alloc@std@@UEAA@XZ
	??1bad_array_new_length@std@@UEAA@XZ
	??1bad_cast@std@@UEAA@XZ
	??1devActions@@QEAA@XZ
	??1exception@std@@UEAA@XZ
	??1joystickActions@@QEAA@XZ
	??1keyboardActions@@QEAA@XZ
	??1locale@std@@QEAA@XZ
	??1midiActions@@QEAA@XZ
	??1mouseActions@@QEAA@XZ
	??1mutex@std@@QEAA@XZ
	??1oActions@@QEAA@XZ
	??1raw_midi@@QEAA@XZ
	??1sentry@?$basic_ostream@DU?$char_traits@D@std@@@std@@QEAA@XZ
	??1thread@std@@QEAA@XZ
	??2@YAPEAX_KPEAX@Z
	??4?$atomic@_N@std@@QEAA_N_N@Z
	??4?$basic_string@DU?$char_traits@D@std@@V?$allocator@D@2@@std@@QEAAAEAV01@AEBV01@@Z
	??4?$vector@VActions@@V?$allocator@VActions@@@std@@@std@@QEAAAEAV01@AEBV01@@Z
	??4?$vector@VdevActions@@V?$allocator@VdevActions@@@std@@@std@@QEAAAEAV01@AEBV01@@Z
	??4Actions@@QEAAAEAV0@AEBV0@@Z
	??4ModeType@@QEAAAEAV0@AEBV0@@Z
	??4_Iterator_base12@std@@QEAAAEAU01@AEBU01@@Z
	??4devActions@@QEAAAEAV0@AEBV0@@Z
	??4keyboardActions@@QEAAAEAV0@AEBV0@@Z
	??6@YAAEAV?$basic_ostream@DU?$char_traits@D@std@@@std@@AEAV01@AEBVmidiActions@@@Z
	??6@YAAEAV?$basic_ostream@DU?$char_traits@D@std@@@std@@AEAV01@AEBVmouseActions@@@Z
	??8?$_Vector_const_iterator@V?$_Vector_val@U?$_Simple_types@VActions@@@std@@@std@@@std@@QEBA_NAEBV01@@Z
	??8?$_Vector_const_iterator@V?$_Vector_val@U?$_Simple_types@VModeType@@@std@@@std@@@std@@QEBA_NAEBV01@@Z
	??8?$_Vector_const_iterator@V?$_Vector_val@U?$_Simple_types@VdevActions@@@std@@@std@@@std@@QEBA_NAEBV01@@Z
	??8?$_Vector_const_iterator@V?$_Vector_val@U?$_Simple_types@Vraw_midi@@@std@@@std@@@std@@QEBA_NAEBV01@@Z
	??A?$vector@W4Api@RtMidi@@V?$allocator@W4Api@RtMidi@@@std@@@std@@QEAAAEAW4Api@RtMidi@@_K@Z
	??B?$atomic@_N@std@@QEBA_NXZ
	??B?$fpos@U_Mbstatet@@@std@@QEBA_JXZ
	??Bsentry@?$basic_ostream@DU?$char_traits@D@std@@@std@@QEBA_NXZ
	??C?$_Vector_iterator@V?$_Vector_val@U?$_Simple_types@VActions@@@std@@@std@@@std@@QEBAPEAVActions@@XZ
	??C?$_Vector_iterator@V?$_Vector_val@U?$_Simple_types@VModeType@@@std@@@std@@@std@@QEBAPEAVModeType@@XZ
	??C?$_Vector_iterator@V?$_Vector_val@U?$_Simple_types@VdevActions@@@std@@@std@@@std@@QEBAPEAVdevActions@@XZ
	??C?$_Vector_iterator@V?$_Vector_val@U?$_Simple_types@Vraw_midi@@@std@@@std@@@std@@QEBAPEAVraw_midi@@XZ
	??D?$_Vector_const_iterator@V?$_Vector_val@U?$_Simple_types@VModeType@@@std@@@std@@@std@@QEBAAEBVModeType@@XZ
	??D?$_Vector_iterator@V?$_Vector_val@U?$_Simple_types@VModeType@@@std@@@std@@@std@@QEBAAEAVModeType@@XZ
	??E?$_Vector_const_iterator@V?$_Vector_val@U?$_Simple_types@VActions@@@std@@@std@@@std@@QEAAAEAV01@XZ
	??E?$_Vector_const_iterator@V?$_Vector_val@U?$_Simple_types@VModeType@@@std@@@std@@@std@@QEAAAEAV01@XZ
	??E?$_Vector_const_iterator@V?$_Vector_val@U?$_Simple_types@VdevActions@@@std@@@std@@@std@@QEAAAEAV01@XZ
	??E?$_Vector_const_iterator@V?$_Vector_val@U?$_Simple_types@Vraw_midi@@@std@@@std@@@std@@QEAAAEAV01@XZ
	??E?$_Vector_iterator@V?$_Vector_val@U?$_Simple_types@VActions@@@std@@@std@@@std@@QEAA?AV01@H@Z
	??E?$_Vector_iterator@V?$_Vector_val@U?$_Simple_types@VModeType@@@std@@@std@@@std@@QEAA?AV01@H@Z
	??E?$_Vector_iterator@V?$_Vector_val@U?$_Simple_types@VdevActions@@@std@@@std@@@std@@QEAA?AV01@H@Z
	??E?$_Vector_iterator@V?$_Vector_val@U?$_Simple_types@Vraw_midi@@@std@@@std@@@std@@QEAA?AV01@H@Z
	??Mstd@@YA_NUstrong_ordering@0@U_Literal_zero@0@@Z
	??Nstd@@YA_NUstrong_ordering@0@U_Literal_zero@0@@Z
	??Ostd@@YA_NUstrong_ordering@0@U_Literal_zero@0@@Z
	??Pstd@@YA_NUstrong_ordering@0@U_Literal_zero@0@@Z
	??R<lambda_1>@?1??assign@?$basic_string@DU?$char_traits@D@std@@V?$allocator@D@2@@std@@QEAAAEAV23@QEBD_K@Z@QEBA@QEAD10@Z
	??R<lambda_1>@?1??push_back@?$basic_string@DU?$char_traits@D@std@@V?$allocator@D@2@@std@@QEAAXD@Z@QEBA@QEADQEBD_KD@Z
	??R?$default_delete@V?$tuple@P8MIDI@@EAAXXZPEAV1@@std@@@std@@QEBAXPEAV?$tuple@P8MIDI@@EAAXXZPEAV1@@1@@Z
	??R?$default_delete@V_Facet_base@std@@@std@@QEBAXPEAV_Facet_base@1@@Z
	??Y?$_Vector_const_iterator@V?$_Vector_val@U?$_Simple_types@VModeType@@@std@@@std@@@std@@QEAAAEAV01@_J@Z
	??Y?$_Vector_iterator@V?$_Vector_val@U?$_Simple_types@VModeType@@@std@@@std@@@std@@QEAAAEAV01@_J@Z
	??Y?$duration@_JU?$ratio@$00$0DLJKMKAA@@std@@@chrono@std@@QEAAAEAV012@AEBV012@@Z
	??Y?$time_point@Usteady_clock@chrono@std@@V?$duration@_JU?$ratio@$00$0DLJKMKAA@@std@@@23@@chrono@std@@QEAAAEAV012@AEBV?$duration@_JU?$ratio@$00$0DLJKMKAA@@std@@@12@@Z
	??_7?$basic_filebuf@DU?$char_traits@D@std@@@std@@6B@
	??_7?$basic_ofstream@DU?$char_traits@D@std@@@std@@6B@
	??_7MIDI@@6B@
	??_7bad_alloc@std@@6B@
	??_7bad_array_new_length@std@@6B@
	??_7bad_cast@std@@6B@
	??_7exception@std@@6B@
	??_7oActions@@6B@
	??_D?$basic_ofstream@DU?$char_traits@D@std@@@std@@QEAAXXZ
	?Clear@jsonParser@@QEAAXXZ
	?Reload@MIDI@@QEAAXXZ
	?Stop@MIDI@@AEAAXXZ
	?_Activate_SSO_buffer@?$_String_val@U?$_Simple_types@D@std@@@std@@QEAAXXZ
	?_Address_subscript@?$_Deque_val@U?$_Deque_simple_types@V?$vector@VdevActions@@V?$allocator@VdevActions@@@std@@@std@@@std@@@std@@QEAAPEAV?$vector@VdevActions@@V?$allocator@VdevActions@@@std@@@2@_K@Z
	?_Adjust_manually_vector_aligned@std@@YAXAEAPEAXAEA_K@Z
	?_Adopt@_Iterator_base12@std@@QEAAXPEBU_Container_base12@2@@Z
	?_Adopt_locked@_Iterator_base12@std@@AEAAXPEBU_Container_base12@2@@Z
	?_Adopt_unlocked@_Iterator_base12@std@@AEAAXPEBU_Container_base12@2@@Z
	?_Allocate@_Default_allocate_traits@std@@SAPEAX_K@Z
	?_Assign_locked@_Iterator_base12@std@@AEAAXAEBU12@@Z
	?_Assign_unlocked@_Iterator_base12@std@@AEAAXAEBU12@@Z
	?_Buy_nonzero@?$vector@VActions@@V?$allocator@VActions@@@std@@@std@@AEAAX_K@Z
	?_Buy_nonzero@?$vector@VdevActions@@V?$allocator@VdevActions@@@std@@@std@@AEAAX_K@Z
	?_Buy_raw@?$vector@VActions@@V?$allocator@VActions@@@std@@@std@@AEAAX_K@Z
	?_Buy_raw@?$vector@VdevActions@@V?$allocator@VdevActions@@@std@@@std@@AEAAX_K@Z
	?_Calculate_growth@?$basic_string@DU?$char_traits@D@std@@V?$allocator@D@2@@std@@AEBA_K_K@Z
	?_Calculate_growth@?$basic_string@DU?$char_traits@D@std@@V?$allocator@D@2@@std@@CA_K_K00@Z
	?_Calculate_growth@?$vector@VActions@@V?$allocator@VActions@@@std@@@std@@AEBA_K_K@Z
	?_Calculate_growth@?$vector@VdevActions@@V?$allocator@VdevActions@@@std@@@std@@AEBA_K_K@Z
	?_Check_offset@?$_String_val@U?$_Simple_types@D@std@@@std@@QEBAX_K@Z
	?_Clamp_suffix_size@?$_String_val@U?$_Simple_types@D@std@@@std@@QEBA_K_K0@Z
	?_Clear_and_reserve_geometric@?$vector@VActions@@V?$allocator@VActions@@@std@@@std@@AEAAX_K@Z
	?_Clear_and_reserve_geometric@?$vector@VdevActions@@V?$allocator@VdevActions@@@std@@@std@@AEAAX_K@Z
	?_Compat@?$_Vector_const_iterator@V?$_Vector_val@U?$_Simple_types@VActions@@@std@@@std@@@std@@QEBAXAEBV12@@Z
	?_Compat@?$_Vector_const_iterator@V?$_Vector_val@U?$_Simple_types@VModeType@@@std@@@std@@@std@@QEBAXAEBV12@@Z
	?_Compat@?$_Vector_const_iterator@V?$_Vector_val@U?$_Simple_types@VdevActions@@@std@@@std@@@std@@QEBAXAEBV12@@Z
	?_Compat@?$_Vector_const_iterator@V?$_Vector_val@U?$_Simple_types@Vraw_midi@@@std@@@std@@@std@@QEBAXAEBV12@@Z
	?_Construct_empty@?$basic_string@DU?$char_traits@D@std@@V?$allocator@D@2@@std@@AEAAXXZ
	?_Deallocate_for_capacity@?$basic_string@DU?$char_traits@D@std@@V?$allocator@D@2@@std@@CAXAEAV?$allocator@D@2@QEAD_K@Z
	?_Endwrite@?$basic_filebuf@DU?$char_traits@D@std@@@std@@IEAA_NXZ
	?_Erase_noexcept@?$basic_string@DU?$char_traits@D@std@@V?$allocator@D@2@@std@@AEAAAEAV12@_K_K@Z
	?_Get_data@?$deque@V?$vector@VdevActions@@V?$allocator@VdevActions@@@std@@@std@@V?$allocator@V?$vector@VdevActions@@V?$allocator@VdevActions@@@std@@@std@@@2@@std@@AEAAAEAV?$_Deque_val@U?$_Deque_simple_types@V?$vector@VdevActions@@V?$allocator@VdevActions@@@std@@@std@@@std@@@2@XZ
	?_Get_data@?$deque@V?$vector@VdevActions@@V?$allocator@VdevActions@@@std@@@std@@V?$allocator@V?$vector@VdevActions@@V?$allocator@VdevActions@@@std@@@std@@@2@@std@@AEBAAEBV?$_Deque_val@U?$_Deque_simple_types@V?$vector@VdevActions@@V?$allocator@VdevActions@@@std@@@std@@@std@@@2@XZ
	?_Get_first@?$_Compressed_pair@U?$default_delete@V?$tuple@P8MIDI@@EAAXXZPEAV1@@std@@@std@@PEAV?$tuple@P8MIDI@@EAAXXZPEAV1@@2@$00@std@@QEAAAEAU?$default_delete@V?$tuple@P8MIDI@@EAAXXZPEAV1@@std@@@2@XZ
	?_Get_first@?$_Compressed_pair@U?$default_delete@V_Facet_base@std@@@std@@PEAV_Facet_base@2@$00@std@@QEAAAEAU?$default_delete@V_Facet_base@std@@@2@XZ
	?_Get_first@?$_Compressed_pair@V?$allocator@D@std@@V?$_String_val@U?$_Simple_types@D@std@@@2@$00@std@@QEAAAEAV?$allocator@D@2@XZ
	?_Get_first@?$_Compressed_pair@V?$allocator@D@std@@V?$_String_val@U?$_Simple_types@D@std@@@2@$00@std@@QEBAAEBV?$allocator@D@2@XZ
	?_Get_first@?$_Compressed_pair@V?$allocator@V?$vector@VdevActions@@V?$allocator@VdevActions@@@std@@@std@@@std@@V?$_Deque_val@U?$_Deque_simple_types@V?$vector@VdevActions@@V?$allocator@VdevActions@@@std@@@std@@@std@@@2@$00@std@@QEAAAEAV?$allocator@V?$vector@VdevActions@@V?$allocator@VdevActions@@@std@@@std@@@2@XZ
	?_Get_first@?$_Compressed_pair@V?$allocator@V?$vector@VdevActions@@V?$allocator@VdevActions@@@std@@@std@@@std@@V?$_Deque_val@U?$_Deque_simple_types@V?$vector@VdevActions@@V?$allocator@VdevActions@@@std@@@std@@@std@@@2@$00@std@@QEBAAEBV?$allocator@V?$vector@VdevActions@@V?$allocator@VdevActions@@@std@@@std@@@2@XZ
	?_Get_first@?$_Compressed_pair@V?$allocator@VActions@@@std@@V?$_Vector_val@U?$_Simple_types@VActions@@@std@@@2@$00@std@@QEAAAEAV?$allocator@VActions@@@2@XZ
	?_Get_first@?$_Compressed_pair@V?$allocator@VActions@@@std@@V?$_Vector_val@U?$_Simple_types@VActions@@@std@@@2@$00@std@@QEBAAEBV?$allocator@VActions@@@2@XZ
	?_Get_first@?$_Compressed_pair@V?$allocator@VModeType@@@std@@V?$_Vector_val@U?$_Simple_types@VModeType@@@std@@@2@$00@std@@QEAAAEAV?$allocator@VModeType@@@2@XZ
	?_Get_first@?$_Compressed_pair@V?$allocator@VdevActions@@@std@@V?$_Vector_val@U?$_Simple_types@VdevActions@@@std@@@2@$00@std@@QEAAAEAV?$allocator@VdevActions@@@2@XZ
	?_Get_first@?$_Compressed_pair@V?$allocator@VdevActions@@@std@@V?$_Vector_val@U?$_Simple_types@VdevActions@@@std@@@2@$00@std@@QEBAAEBV?$allocator@VdevActions@@@2@XZ
	?_Get_first@?$_Compressed_pair@V?$allocator@Vraw_midi@@@std@@V?$_Vector_val@U?$_Simple_types@Vraw_midi@@@std@@@2@$00@std@@QEAAAEAV?$allocator@Vraw_midi@@@2@XZ
	?_Get_first@?$_Compressed_pair@V?$allocator@W4Api@RtMidi@@@std@@V?$_Vector_val@U?$_Simple_types@W4Api@RtMidi@@@std@@@2@$00@std@@QEAAAEAV?$allocator@W4Api@RtMidi@@@2@XZ
	?_Getal@?$basic_string@DU?$char_traits@D@std@@V?$allocator@D@2@@std@@AEAAAEAV?$allocator@D@2@XZ
	?_Getal@?$basic_string@DU?$char_traits@D@std@@V?$allocator@D@2@@std@@AEBAAEBV?$allocator@D@2@XZ
	?_Getal@?$deque@V?$vector@VdevActions@@V?$allocator@VdevActions@@@std@@@std@@V?$allocator@V?$vector@VdevActions@@V?$allocator@VdevActions@@@std@@@std@@@2@@std@@AEAAAEAV?$allocator@V?$vector@VdevActions@@V?$allocator@VdevActions@@@std@@@std@@@2@XZ
	?_Getal@?$deque@V?$vector@VdevActions@@V?$allocator@VdevActions@@@std@@@std@@V?$allocator@V?$vector@VdevActions@@V?$allocator@VdevActions@@@std@@@std@@@2@@std@@AEBAAEBV?$allocator@V?$vector@VdevActions@@V?$allocator@VdevActions@@@std@@@std@@@2@XZ
	?_Getal@?$vector@VActions@@V?$allocator@VActions@@@std@@@std@@AEAAAEAV?$allocator@VActions@@@2@XZ
	?_Getal@?$vector@VActions@@V?$allocator@VActions@@@std@@@std@@AEBAAEBV?$allocator@VActions@@@2@XZ
	?_Getal@?$vector@VModeType@@V?$allocator@VModeType@@@std@@@std@@AEAAAEAV?$allocator@VModeType@@@2@XZ
	?_Getal@?$vector@VdevActions@@V?$allocator@VdevActions@@@std@@@std@@AEAAAEAV?$allocator@VdevActions@@@2@XZ
	?_Getal@?$vector@VdevActions@@V?$allocator@VdevActions@@@std@@@std@@AEBAAEBV?$allocator@VdevActions@@@2@XZ
	?_Getal@?$vector@Vraw_midi@@V?$allocator@Vraw_midi@@@std@@@std@@AEAAAEAV?$allocator@Vraw_midi@@@2@XZ
	?_Getal@?$vector@W4Api@RtMidi@@V?$allocator@W4Api@RtMidi@@@std@@@std@@AEAAAEAV?$allocator@W4Api@RtMidi@@@2@XZ
	?_Getblock@?$_Deque_val@U?$_Deque_simple_types@V?$vector@VdevActions@@V?$allocator@VdevActions@@@std@@@std@@@std@@@std@@QEBA_J_K@Z
	?_Getblock@?$deque@V?$vector@VdevActions@@V?$allocator@VdevActions@@@std@@@std@@V?$allocator@V?$vector@VdevActions@@V?$allocator@VdevActions@@@std@@@std@@@2@@std@@AEBA_J_K@Z
	?_Getcont@_Iterator_base12@std@@QEBAPEBU_Container_base12@2@XZ
	?_Getfacet@locale@std@@QEBAPEBVfacet@12@_K@Z
	?_Growmap@?$deque@V?$vector@VdevActions@@V?$allocator@VdevActions@@@std@@@std@@V?$allocator@V?$vector@VdevActions@@V?$allocator@VdevActions@@@std@@@std@@@2@@std@@AEAAX_K@Z
	?_Init@?$basic_filebuf@DU?$char_traits@D@std@@@std@@IEAAXPEAU_iobuf@@W4_Initfl@12@@Z
	?_Initcvt@?$basic_filebuf@DU?$char_traits@D@std@@@std@@IEAAXAEBV?$codecvt@DDU_Mbstatet@@@2@@Z
	?_Large_mode_engaged@?$_String_val@U?$_Simple_types@D@std@@@std@@QEBA_NXZ
	?_Lock@?$basic_filebuf@DU?$char_traits@D@std@@@std@@UEAAXXZ
	?_Maklocwcs@std@@YAPEA_WPEB_W@Z
	?_Map@?$deque@V?$vector@VdevActions@@V?$allocator@VdevActions@@@std@@@std@@V?$allocator@V?$vector@VdevActions@@V?$allocator@VdevActions@@@std@@@std@@@2@@std@@AEAAAEAPEAPEAV?$vector@VdevActions@@V?$allocator@VdevActions@@@std@@@2@XZ
	?_Map_distance@?$deque@V?$vector@VdevActions@@V?$allocator@VdevActions@@@std@@@std@@V?$allocator@V?$vector@VdevActions@@V?$allocator@VdevActions@@@std@@@std@@@2@@std@@AEBA_JXZ
	?_Mapsize@?$deque@V?$vector@VdevActions@@V?$allocator@VdevActions@@@std@@@std@@V?$allocator@V?$vector@VdevActions@@V?$allocator@VdevActions@@@std@@@std@@@2@@std@@AEAAAEA_KXZ
	?_Mymtx@_Mutex_base@std@@AEAAPEAU_Mtx_internal_imp_t@@XZ
	?_Myoff@?$deque@V?$vector@VdevActions@@V?$allocator@VdevActions@@@std@@@std@@V?$allocator@V?$vector@VdevActions@@V?$allocator@VdevActions@@@std@@@std@@@2@@std@@AEAAAEA_KXZ
	?_Myoff@?$deque@V?$vector@VdevActions@@V?$allocator@VdevActions@@@std@@@std@@V?$allocator@V?$vector@VdevActions@@V?$allocator@VdevActions@@@std@@@std@@@2@@std@@AEBAAEB_KXZ
	?_Myptr@?$_String_val@U?$_Simple_types@D@std@@@std@@QEAAPEADXZ
	?_Myptr@?$_String_val@U?$_Simple_types@D@std@@@std@@QEBAPEBDXZ
	?_Mysize@?$deque@V?$vector@VdevActions@@V?$allocator@VdevActions@@@std@@@std@@V?$allocator@V?$vector@VdevActions@@V?$allocator@VdevActions@@@std@@@std@@@2@@std@@AEAAAEA_KXZ
	?_Mysize@?$deque@V?$vector@VdevActions@@V?$allocator@VdevActions@@@std@@@std@@V?$allocator@V?$vector@VdevActions@@V?$allocator@VdevActions@@@std@@@std@@@2@@std@@AEBAAEB_KXZ
	?_Orphan_all@?$deque@V?$vector@VdevActions@@V?$allocator@VdevActions@@@std@@@std@@V?$allocator@V?$vector@VdevActions@@V?$allocator@VdevActions@@@std@@@std@@@2@@std@@AEAAXXZ
	?_Orphan_all@_Container_base12@std@@QEAAXXZ
	?_Orphan_all_locked_v3@_Container_base12@std@@AEAAXXZ
	?_Orphan_all_unlocked_v3@_Container_base12@std@@AEAAXXZ
	?_Orphan_me_locked_v3@_Iterator_base12@std@@AEAAXXZ
	?_Orphan_me_unlocked_v3@_Iterator_base12@std@@AEAAXXZ
	?_Orphan_off@?$deque@V?$vector@VdevActions@@V?$allocator@VdevActions@@@std@@@std@@V?$allocator@V?$vector@VdevActions@@V?$allocator@VdevActions@@@std@@@std@@@2@@std@@AEBAX_K@Z
	?_Release@?$_Uninitialized_backout@PEAPEAV?$vector@VdevActions@@V?$allocator@VdevActions@@@std@@@std@@@std@@QEAAPEAPEAV?$vector@VdevActions@@V?$allocator@VdevActions@@@std@@@2@XZ
	?_Release@?$_Uninitialized_backout_al@V?$allocator@VActions@@@std@@@std@@QEAAPEAVActions@@XZ
	?_Release@?$_Uninitialized_backout_al@V?$allocator@VdevActions@@@std@@@std@@QEAAPEAVdevActions@@XZ
	?_Release@_Basic_container_proxy_ptr12@std@@QEAAXXZ
	?_Reset_back@?$basic_filebuf@DU?$char_traits@D@std@@@std@@AEAAXXZ
	?_Set_back@?$basic_filebuf@DU?$char_traits@D@std@@@std@@AEAAXXZ
	?_Subscript@?$_Deque_val@U?$_Deque_simple_types@V?$vector@VdevActions@@V?$allocator@VdevActions@@@std@@@std@@@std@@@std@@QEAAAEAV?$vector@VdevActions@@V?$allocator@VdevActions@@@std@@@2@_K@Z
	?_Subscript@?$deque@V?$vector@VdevActions@@V?$allocator@VdevActions@@@std@@@std@@V?$allocator@V?$vector@VdevActions@@V?$allocator@VdevActions@@@std@@@std@@@2@@std@@AEAAAEAV?$vector@VdevActions@@V?$allocator@VdevActions@@@std@@@2@_K@Z
	?_Switch_to_buf@_Bxty@?$_String_val@U?$_Simple_types@D@std@@@std@@QEAAXXZ
	?_Throw_bad_array_new_length@std@@YAXXZ
	?_Throw_bad_cast@std@@YAXXZ
	?_Tidy@?$deque@V?$vector@VdevActions@@V?$allocator@VdevActions@@@std@@@std@@V?$allocator@V?$vector@VdevActions@@V?$allocator@VdevActions@@@std@@@std@@@2@@std@@AEAAXXZ
	?_Tidy@?$vector@VActions@@V?$allocator@VActions@@@std@@@std@@AEAAXXZ
	?_Tidy@?$vector@VModeType@@V?$allocator@VModeType@@@std@@@std@@AEAAXXZ
	?_Tidy@?$vector@VdevActions@@V?$allocator@VdevActions@@@std@@@std@@AEAAXXZ
	?_Tidy@?$vector@Vraw_midi@@V?$allocator@Vraw_midi@@@std@@@std@@AEAAXXZ
	?_Tidy@?$vector@W4Api@RtMidi@@V?$allocator@W4Api@RtMidi@@@std@@@std@@AEAAXXZ
	?_Tidy_deallocate@?$basic_string@DU?$char_traits@D@std@@V?$allocator@D@2@@std@@AEAAXXZ
	?_Unlock@?$basic_filebuf@DU?$char_traits@D@std@@@std@@UEAAXXZ
	?_Verify_offset@?$_Vector_const_iterator@V?$_Vector_val@U?$_Simple_types@VModeType@@@std@@@std@@@std@@QEBAX_J@Z
	?_Verify_ownership_levels@_Mutex_base@std@@IEAA_NXZ
	?_Xlen@?$deque@V?$vector@VdevActions@@V?$allocator@VdevActions@@@std@@@std@@V?$allocator@V?$vector@VdevActions@@V?$allocator@VdevActions@@@std@@@std@@@2@@std@@CAXXZ
	?_Xlen_string@std@@YAXXZ
	?_Xlength@?$vector@VActions@@V?$allocator@VActions@@@std@@@std@@CAXXZ
	?_Xlength@?$vector@VdevActions@@V?$allocator@VdevActions@@@std@@@std@@CAXXZ
	?_Xran@?$_String_val@U?$_Simple_types@D@std@@@std@@SAXXZ
	?_Xrange@?$vector@EV?$allocator@E@std@@@std@@CAXXZ
	?__empty_global_delete@@YAXPEAX@Z
	?__empty_global_delete@@YAXPEAXW4align_val_t@std@@@Z
	?__empty_global_delete@@YAXPEAX_K@Z
	?__empty_global_delete@@YAXPEAX_KW4align_val_t@std@@@Z
	?allocate@?$allocator@D@std@@QEAAPEAD_K@Z
	?allocate@?$allocator@PEAV?$vector@VdevActions@@V?$allocator@VdevActions@@@std@@@std@@@std@@QEAAPEAPEAV?$vector@VdevActions@@V?$allocator@VdevActions@@@std@@@2@_K@Z
	?allocate@?$allocator@U_Container_proxy@std@@@std@@QEAAPEAU_Container_proxy@2@_K@Z
	?allocate@?$allocator@V?$vector@VdevActions@@V?$allocator@VdevActions@@@std@@@std@@@std@@QEAAPEAV?$vector@VdevActions@@V?$allocator@VdevActions@@@std@@@2@_K@Z
	?allocate@?$allocator@VActions@@@std@@QEAAPEAVActions@@_K@Z
	?allocate@?$allocator@VdevActions@@@std@@QEAAPEAVdevActions@@_K@Z
	?assign@?$_Char_traits@DH@std@@SAXAEADAEBD@Z
	?assign@?$_Narrow_char_traits@DH@std@@SAXAEADAEBD@Z
	?assign@?$basic_string@DU?$char_traits@D@std@@V?$allocator@D@2@@std@@QEAAAEAV12@QEBD_K@Z
	?at@?$vector@EV?$allocator@E@std@@@std@@QEAAAEAE_K@Z
	?begin@?$vector@VActions@@V?$allocator@VActions@@@std@@@std@@QEAA?AV?$_Vector_iterator@V?$_Vector_val@U?$_Simple_types@VActions@@@std@@@std@@@2@XZ
	?begin@?$vector@VModeType@@V?$allocator@VModeType@@@std@@@std@@QEAA?AV?$_Vector_iterator@V?$_Vector_val@U?$_Simple_types@VModeType@@@std@@@std@@@2@XZ
	?begin@?$vector@VdevActions@@V?$allocator@VdevActions@@@std@@@std@@QEAA?AV?$_Vector_iterator@V?$_Vector_val@U?$_Simple_types@VdevActions@@@std@@@std@@@2@XZ
	?begin@?$vector@Vraw_midi@@V?$allocator@Vraw_midi@@@std@@@std@@QEAA?AV?$_Vector_iterator@V?$_Vector_val@U?$_Simple_types@Vraw_midi@@@std@@@std@@@2@XZ
	?c_str@?$basic_string@DU?$char_traits@D@std@@V?$allocator@D@2@@std@@QEBAPEBDXZ
	?capacity@?$vector@VActions@@V?$allocator@VActions@@@std@@@std@@QEBA_KXZ
	?capacity@?$vector@VdevActions@@V?$allocator@VdevActions@@@std@@@std@@QEBA_KXZ
	?changeMode@MIDI@@AEAAXV?$_Vector_iterator@V?$_Vector_val@U?$_Simple_types@VActions@@@std@@@std@@@std@@@Z
	?clear@?$vector@VActions@@V?$allocator@VActions@@@std@@@std@@QEAAXXZ
	?clear@?$vector@VModeType@@V?$allocator@VModeType@@@std@@@std@@QEAAXXZ
	?close@?$basic_filebuf@DU?$char_traits@D@std@@@std@@QEAAPEAV12@XZ
	?close@?$basic_ofstream@DU?$char_traits@D@std@@@std@@QEAAXXZ
	?compare@?$_Narrow_char_traits@DH@std@@SAHQEBD0_K@Z
	?compare@?$basic_string@DU?$char_traits@D@std@@V?$allocator@D@2@@std@@QEBAHAEBV12@@Z
	?coms_handler@MIDI@@AEAAXXZ
	?copy@?$_Char_traits@DH@std@@SAPEADQEADQEBD_K@Z
	?count@?$duration@_JU?$ratio@$00$0DLJKMKAA@@std@@@chrono@std@@QEBA_JXZ
	?count@?$duration@_JU?$ratio@$00$0DOI@@std@@@chrono@std@@QEBA_JXZ
	?data@?$basic_string@DU?$char_traits@D@std@@V?$allocator@D@2@@std@@QEAAPEADXZ
	?data@?$basic_string@DU?$char_traits@D@std@@V?$allocator@D@2@@std@@QEBAPEBDXZ
	?deallocate@?$_Default_allocator_traits@V?$allocator@U_Container_proxy@std@@@std@@@std@@SAXAEAV?$allocator@U_Container_proxy@std@@@2@QEAU_Container_proxy@2@_K@Z
	?deallocate@?$allocator@D@std@@QEAAXQEAD_K@Z
	?deallocate@?$allocator@PEAV?$vector@VdevActions@@V?$allocator@VdevActions@@@std@@@std@@@std@@QEAAXQEAPEAV?$vector@VdevActions@@V?$allocator@VdevActions@@@std@@@2@_K@Z
	?deallocate@?$allocator@U_Container_proxy@std@@@std@@QEAAXQEAU_Container_proxy@2@_K@Z
	?deallocate@?$allocator@V?$vector@VdevActions@@V?$allocator@VdevActions@@@std@@@std@@@std@@QEAAXQEAV?$vector@VdevActions@@V?$allocator@VdevActions@@@std@@@2@_K@Z
	?deallocate@?$allocator@VActions@@@std@@QEAAXQEAVActions@@_K@Z
	?deallocate@?$allocator@VModeType@@@std@@QEAAXQEAVModeType@@_K@Z
	?deallocate@?$allocator@VdevActions@@@std@@QEAAXQEAVdevActions@@_K@Z
	?deallocate@?$allocator@Vraw_midi@@@std@@QEAAXQEAVraw_midi@@_K@Z
	?deallocate@?$allocator@W4Api@RtMidi@@@std@@QEAAXQEAW4Api@RtMidi@@_K@Z
	?empty@?$deque@V?$vector@VdevActions@@V?$allocator@VdevActions@@@std@@@std@@V?$allocator@V?$vector@VdevActions@@V?$allocator@VdevActions@@@std@@@std@@@2@@std@@QEBA_NXZ
	?empty@?$queue@V?$vector@VdevActions@@V?$allocator@VdevActions@@@std@@@std@@V?$deque@V?$vector@VdevActions@@V?$allocator@VdevActions@@@std@@@std@@V?$allocator@V?$vector@VdevActions@@V?$allocator@VdevActions@@@std@@@std@@@2@@2@@std@@QEBA_NXZ
	?end@?$vector@VActions@@V?$allocator@VActions@@@std@@@std@@QEAA?AV?$_Vector_iterator@V?$_Vector_val@U?$_Simple_types@VActions@@@std@@@std@@@2@XZ
	?end@?$vector@VModeType@@V?$allocator@VModeType@@@std@@@std@@QEAA?AV?$_Vector_iterator@V?$_Vector_val@U?$_Simple_types@VModeType@@@std@@@std@@@2@XZ
	?end@?$vector@VdevActions@@V?$allocator@VdevActions@@@std@@@std@@QEAA?AV?$_Vector_iterator@V?$_Vector_val@U?$_Simple_types@VdevActions@@@std@@@std@@@2@XZ
	?end@?$vector@Vraw_midi@@V?$allocator@Vraw_midi@@@std@@@std@@QEAA?AV?$_Vector_iterator@V?$_Vector_val@U?$_Simple_types@Vraw_midi@@@std@@@std@@@2@XZ
	?eof@?$_Narrow_char_traits@DH@std@@SAHXZ
	?eq_int_type@?$_Narrow_char_traits@DH@std@@SA_NHH@Z
	?erase@?$basic_string@DU?$char_traits@D@std@@V?$allocator@D@2@@std@@QEAAAEAV12@_K0@Z
	?execHeader@MIDI@@AEAAXXZ
	?front@?$basic_string@DU?$char_traits@D@std@@V?$allocator@D@2@@std@@QEAAAEADXZ
	?front@?$deque@V?$vector@VdevActions@@V?$allocator@VdevActions@@@std@@@std@@V?$allocator@V?$vector@VdevActions@@V?$allocator@VdevActions@@@std@@@std@@@2@@std@@QEAAAEAV?$vector@VdevActions@@V?$allocator@VdevActions@@@std@@@2@XZ
	?front@?$queue@V?$vector@VdevActions@@V?$allocator@VdevActions@@@std@@@std@@V?$deque@V?$vector@VdevActions@@V?$allocator@VdevActions@@@std@@@std@@V?$allocator@V?$vector@VdevActions@@V?$allocator@VdevActions@@@std@@@std@@@2@@2@@std@@QEAAAEAV?$vector@VdevActions@@V?$allocator@VdevActions@@@std@@@2@XZ
	?get@?$unique_ptr@V?$tuple@P8MIDI@@EAAXXZPEAV1@@std@@U?$default_delete@V?$tuple@P8MIDI@@EAAXXZPEAV1@@std@@@2@@std@@QEBAPEAV?$tuple@P8MIDI@@EAAXXZPEAV1@@2@XZ
	?hex@std@@YAAEAVios_base@1@AEAV21@@Z
	?ignoreTypes@RtMidiIn@@QEAAX_N00@Z
	?imbue@?$basic_filebuf@DU?$char_traits@D@std@@@std@@MEAAXAEBVlocale@2@@Z
	?in_func@MIDI@@AEAAXXZ
	?is_constant_evaluated@std@@YA_NXZ
	?is_open@?$basic_filebuf@DU?$char_traits@D@std@@@std@@QEBA_NXZ
	?is_open@?$basic_ofstream@DU?$char_traits@D@std@@@std@@QEBA_NXZ
	?join@thread@std@@QEAAXXZ
	?joinable@thread@std@@QEBA_NXZ
	?length@?$_Narrow_char_traits@DH@std@@SA_KQEBD@Z
	?load@?$_Atomic_storage@_N$00@std@@QEBA_NXZ
	?lock@_Mutex_base@std@@QEAAXXZ
	?max@?$numeric_limits@_J@std@@SA_JXZ
	?max_size@?$_Default_allocator_traits@V?$allocator@D@std@@@std@@SA_KAEBV?$allocator@D@2@@Z
	?max_size@?$_Default_allocator_traits@V?$allocator@V?$vector@VdevActions@@V?$allocator@VdevActions@@@std@@@std@@@std@@@std@@SA_KAEBV?$allocator@V?$vector@VdevActions@@V?$allocator@VdevActions@@@std@@@std@@@2@@Z
	?max_size@?$_Default_allocator_traits@V?$allocator@VActions@@@std@@@std@@SA_KAEBV?$allocator@VActions@@@2@@Z
	?max_size@?$_Default_allocator_traits@V?$allocator@VdevActions@@@std@@@std@@SA_KAEBV?$allocator@VdevActions@@@2@@Z
	?max_size@?$basic_string@DU?$char_traits@D@std@@V?$allocator@D@2@@std@@QEBA_KXZ
	?max_size@?$deque@V?$vector@VdevActions@@V?$allocator@VdevActions@@@std@@@std@@V?$allocator@V?$vector@VdevActions@@V?$allocator@VdevActions@@@std@@@std@@@2@@std@@QEBA_KXZ
	?max_size@?$vector@VActions@@V?$allocator@VActions@@@std@@@std@@QEBA_KXZ
	?max_size@?$vector@VdevActions@@V?$allocator@VdevActions@@@std@@@std@@QEBA_KXZ
	?move@?$_Char_traits@DH@std@@SAPEADQEADQEBD_K@Z
	?mycallback@@YAXNPEAV?$vector@EV?$allocator@E@std@@@std@@PEAX@Z
	?not_eof@?$_Narrow_char_traits@DH@std@@SAHH@Z
	?now@steady_clock@chrono@std@@SA?AV?$time_point@Usteady_clock@chrono@std@@V?$duration@_JU?$ratio@$00$0DLJKMKAA@@std@@@23@@23@XZ
	?oJoystick@MIDI@@EEAAXVjoystickActions@@@Z
	?oJoystick@oActions@@UEAAXVjoystickActions@@@Z
	?oKeyboard@MIDI@@EEAAXVkeyboardActions@@@Z
	?oKeyboard@oActions@@UEAAXVkeyboardActions@@@Z
	?oMouse@MIDI@@EEAAXVmouseActions@@@Z
	?oMouse@oActions@@UEAAXVmouseActions@@@Z
	?open@?$basic_filebuf@DU?$char_traits@D@std@@@std@@QEAAPEAV12@PEBDHH@Z
	?open@?$basic_ofstream@DU?$char_traits@D@std@@@std@@QEAAXAEBV?$basic_string@DU?$char_traits@D@std@@V?$allocator@D@2@@2@HH@Z
	?open@?$basic_ofstream@DU?$char_traits@D@std@@@std@@QEAAXPEBDHH@Z
	?outFile@MIDI@@AEAA_NV?$basic_string@DU?$char_traits@D@std@@V?$allocator@D@2@@std@@@Z
	?outStop@MIDI@@AEAAXXZ
	?out_func@MIDI@@AEAAXXZ
	?overflow@?$basic_filebuf@DU?$char_traits@D@std@@@std@@MEAAHH@Z
	?parse@MIDI@@AEAAXXZ
	?pbackfail@?$basic_filebuf@DU?$char_traits@D@std@@@std@@MEAAHH@Z
	?pop@?$queue@V?$vector@VdevActions@@V?$allocator@VdevActions@@@std@@@std@@V?$deque@V?$vector@VdevActions@@V?$allocator@VdevActions@@@std@@@std@@V?$allocator@V?$vector@VdevActions@@V?$allocator@VdevActions@@@std@@@std@@@2@@2@@std@@QEAAXXZ
	?pop_back@?$deque@V?$vector@VdevActions@@V?$allocator@VdevActions@@@std@@@std@@V?$allocator@V?$vector@VdevActions@@V?$allocator@VdevActions@@@std@@@std@@@2@@std@@QEAAXXZ
	?pop_front@?$deque@V?$vector@VdevActions@@V?$allocator@VdevActions@@@std@@@std@@V?$allocator@V?$vector@VdevActions@@V?$allocator@VdevActions@@@std@@@std@@@2@@std@@QEAAXXZ
	?processInput@MIDI@@QEAAXTmidiSignal@@@Z
	?processMode@MIDI@@AEAAXVModeType@@@Z
	?push@?$queue@V?$vector@VdevActions@@V?$allocator@VdevActions@@@std@@@std@@V?$deque@V?$vector@VdevActions@@V?$allocator@VdevActions@@@std@@@std@@V?$allocator@V?$vector@VdevActions@@V?$allocator@VdevActions@@@std@@@std@@@2@@2@@std@@QEAAXAEBV?$vector@VdevActions@@V?$allocator@VdevActions@@@std@@@2@@Z
	?push_back@?$basic_string@DU?$char_traits@D@std@@V?$allocator@D@2@@std@@QEAAXD@Z
	?push_back@?$deque@V?$vector@VdevActions@@V?$allocator@VdevActions@@@std@@@std@@V?$allocator@V?$vector@VdevActions@@V?$allocator@VdevActions@@@std@@@std@@@2@@std@@QEAAXAEBV?$vector@VdevActions@@V?$allocator@VdevActions@@@std@@@2@@Z
	?release@?$unique_ptr@V?$tuple@P8MIDI@@EAAXXZPEAV1@@std@@U?$default_delete@V?$tuple@P8MIDI@@EAAXXZPEAV1@@std@@@2@@std@@QEAAPEAV?$tuple@P8MIDI@@EAAXXZPEAV1@@2@XZ
	?release@?$unique_ptr@V_Facet_base@std@@U?$default_delete@V_Facet_base@std@@@2@@std@@QEAAPEAV_Facet_base@2@XZ
	?saveJSON@MIDI@@AEAAXXZ
	?seekoff@?$basic_filebuf@DU?$char_traits@D@std@@@std@@MEAA?AV?$fpos@U_Mbstatet@@@2@_JHH@Z
	?seekpos@?$basic_filebuf@DU?$char_traits@D@std@@@std@@MEAA?AV?$fpos@U_Mbstatet@@@2@V32@H@Z
	?select_on_container_copy_construction@?$_Default_allocator_traits@V?$allocator@D@std@@@std@@SA?AV?$allocator@D@2@AEBV32@@Z
	?select_on_container_copy_construction@?$_Default_allocator_traits@V?$allocator@VActions@@@std@@@std@@SA?AV?$allocator@VActions@@@2@AEBV32@@Z
	?select_on_container_copy_construction@?$_Default_allocator_traits@V?$allocator@VdevActions@@@std@@@std@@SA?AV?$allocator@VdevActions@@@2@AEBV32@@Z
	?send_joystick@MIDI@@AEAAXXZ
	?send_midi@MIDI@@AEAAXPEAD_K@Z
	?send_mouse@MIDI@@AEAAXVmouseActions@@@Z
	?setCallback@RtMidiIn@@QEAAXP6AXNPEAV?$vector@EV?$allocator@E@std@@@std@@PEAX@Z1@Z
	?setbuf@?$basic_filebuf@DU?$char_traits@D@std@@@std@@MEAAPEAV?$basic_streambuf@DU?$char_traits@D@std@@@2@PEAD_J@Z
	?size@?$basic_string@DU?$char_traits@D@std@@V?$allocator@D@2@@std@@QEBA_KXZ
	?size@?$vector@EV?$allocator@E@std@@@std@@QEBA_KXZ
	?size@?$vector@W4Api@RtMidi@@V?$allocator@W4Api@RtMidi@@@std@@@std@@QEBA_KXZ
	?state@?$fpos@U_Mbstatet@@@std@@QEBA?AU_Mbstatet@@XZ
	?store@?$_Atomic_storage@_N$00@std@@QEAAX_N@Z
	?sync@?$basic_filebuf@DU?$char_traits@D@std@@@std@@MEAAHXZ
	?time_since_epoch@?$time_point@Usteady_clock@chrono@std@@V?$duration@_JU?$ratio@$00$0DLJKMKAA@@std@@@23@@chrono@std@@QEBA?AV?$duration@_JU?$ratio@$00$0DLJKMKAA@@std@@@23@XZ
	?to_char_type@?$_Narrow_char_traits@DH@std@@SADH@Z
	?to_int_type@?$_Narrow_char_traits@DH@std@@SAHD@Z
	?uflow@?$basic_filebuf@DU?$char_traits@D@std@@@std@@MEAAHXZ
	?underflow@?$basic_filebuf@DU?$char_traits@D@std@@@std@@MEAAHXZ
	?unlock@_Mutex_base@std@@QEAAXXZ
	?what@exception@std@@UEBAPEBDXZ
	?xsgetn@?$basic_filebuf@DU?$char_traits@D@std@@@std@@MEAA_JPEAD_J@Z
	?xsputn@?$basic_filebuf@DU?$char_traits@D@std@@@std@@MEAA_JPEBD_J@Z
	__local_stdio_printf_options
	_vsnprintf_l
	_vsprintf_l
	sprintf
	wmemcpy
