EXPORTS 
	?$TSS0@?L@??StrtodDiyFp@internal@rapidjson@@YA_NPEBDHHPEAN@Z@4HA 	 DATA
	??_R0?AV?$_Iosb@H@std@@@8 	 DATA
	??_R0?AV?$basic_filebuf@DU?$char_traits@D@std@@@std@@@8 	 DATA
	??_R0?AV?$basic_ifstream@DU?$char_traits@D@std@@@std@@@8 	 DATA
	??_R0?AV?$basic_ios@DU?$char_traits@D@std@@@std@@@8 	 DATA
	??_R0?AV?$basic_iostream@DU?$char_traits@D@std@@@std@@@8 	 DATA
	??_R0?AV?$basic_istream@DU?$char_traits@D@std@@@std@@@8 	 DATA
	??_R0?AV?$basic_ostream@DU?$char_traits@D@std@@@std@@@8 	 DATA
	??_R0?AV?$basic_streambuf@DU?$char_traits@D@std@@@std@@@8 	 DATA
	??_R0?AV?$basic_stringbuf@DU?$char_traits@D@std@@V?$allocator@D@2@@std@@@8 	 DATA
	??_R0?AV?$basic_stringstream@DU?$char_traits@D@std@@V?$allocator@D@2@@std@@@8 	 DATA
	??_R0?AVKeySet@@@8 	 DATA
	??_R0?AVbad_alloc@std@@@8 	 DATA
	??_R0?AVbad_array_new_length@std@@@8 	 DATA
	??_R0?AVbad_cast@std@@@8 	 DATA
	??_R0?AVexception@std@@@8 	 DATA
	??_R0?AVios_base@std@@@8 	 DATA
	??_R0?AVoActions@@@8 	 DATA
	?_Psave@?$_Facetptr@V?$codecvt@DDU_Mbstatet@@@std@@@std@@2PEBVfacet@locale@2@EB 	 DATA
	?_Stinit@?1??_Init@?$basic_filebuf@DU?$char_traits@D@std@@@std@@IEAAXPEAU_iobuf@@W4_Initfl@23@@Z@4U_Mbstatet@@A 	 DATA
	?buffer@?5???$?AV?$MemoryPoolAllocator@VCrtAllocator@rapidjson@@@rapidjson@@@?$GenericValue@U?$UTF8@D@rapidjson@@V?$MemoryPoolAllocator@VCrtAllocator@rapidjson@@@2@@rapidjson@@QEAAAEAV12@AEBV12@@Z@4PADA 	 DATA
	?kPow10@?L@??StrtodDiyFp@internal@rapidjson@@YA_NPEBDHHPEAN@Z@4QBUDiyFp@23@B 	 DATA
	??$?0$$V@?$_Compressed_pair@V?$allocator@D@std@@V?$_String_val@U?$_Simple_types@D@std@@@2@$00@std@@QEAA@U_Zero_then_variadic_args_t@1@@Z
	??$?0$$V@?$_Compressed_pair@V?$allocator@V?$basic_string@DU?$char_traits@D@std@@V?$allocator@D@2@@std@@@std@@V?$_Vector_val@U?$_Simple_types@V?$basic_string@DU?$char_traits@D@std@@V?$allocator@D@2@@std@@@std@@@2@$00@std@@QEAA@U_Zero_then_variadic_args_t@1@@Z
	??$?0$$V@?$_Compressed_pair@V?$allocator@VActions@@@std@@V?$_Vector_val@U?$_Simple_types@VActions@@@std@@@2@$00@std@@QEAA@U_Zero_then_variadic_args_t@1@@Z
	??$?0$$V@?$_Compressed_pair@V?$allocator@VKeyValue@@@std@@V?$_Vector_val@U?$_Simple_types@VKeyValue@@@std@@@2@$00@std@@QEAA@U_Zero_then_variadic_args_t@1@@Z
	??$?0$$V@?$_Compressed_pair@V?$allocator@VdevActions@@@std@@V?$_Vector_val@U?$_Simple_types@VdevActions@@@std@@@2@$00@std@@QEAA@U_Zero_then_variadic_args_t@1@@Z
	??$?0AEAPEAV_Facet_base@std@@@?$_Compressed_pair@U?$default_delete@V_Facet_base@std@@@std@@PEAV_Facet_base@2@$00@std@@QEAA@U_Zero_then_variadic_args_t@1@AEAPEAV_Facet_base@1@@Z
	??$?0AEBV?$allocator@D@std@@$$V@?$_Compressed_pair@V?$allocator@D@std@@V?$_String_val@U?$_Simple_types@D@std@@@2@$00@std@@QEAA@U_One_then_variadic_args_t@1@AEBV?$allocator@D@1@@Z
	??$?0D@?$allocator@U_Container_proxy@std@@@std@@QEAA@AEBV?$allocator@D@1@@Z
	??$?0I$0A@@?$duration@_JU?$ratio@$00$0PECEA@@std@@@chrono@std@@QEAA@AEBI@Z
	??$?0PEAD$0A@@?$basic_string@DU?$char_traits@D@std@@V?$allocator@D@2@@std@@QEAA@PEAD0AEBV?$allocator@D@1@@Z
	??$?0U?$default_delete@V_Facet_base@std@@@std@@$0A@@?$unique_ptr@V_Facet_base@std@@U?$default_delete@V_Facet_base@std@@@2@@std@@QEAA@PEAV_Facet_base@1@@Z
	??$?0V?$allocator@D@std@@$$V@?$_Compressed_pair@V?$allocator@D@std@@V?$_String_val@U?$_Simple_types@D@std@@@2@$00@std@@QEAA@U_One_then_variadic_args_t@1@$$QEAV?$allocator@D@1@@Z
	??$?0V?$allocator@V?$basic_string@DU?$char_traits@D@std@@V?$allocator@D@2@@std@@@std@@$$V@?$_Compressed_pair@V?$allocator@V?$basic_string@DU?$char_traits@D@std@@V?$allocator@D@2@@std@@@std@@V?$_Vector_val@U?$_Simple_types@V?$basic_string@DU?$char_traits@D@std@@V?$allocator@D@2@@std@@@std@@@2@$00@std@@QEAA@U_One_then_variadic_args_t@1@$$QEAV?$allocator@V?$basic_string@DU?$char_traits@D@std@@V?$allocator@D@2@@std@@@1@@Z
	??$?0V?$allocator@VActions@@@std@@$$V@?$_Compressed_pair@V?$allocator@VActions@@@std@@V?$_Vector_val@U?$_Simple_types@VActions@@@std@@@2@$00@std@@QEAA@U_One_then_variadic_args_t@1@$$QEAV?$allocator@VActions@@@1@@Z
	??$?0V?$allocator@VActions@@@std@@PEAVActions@@PEAV2@PEAV2@@?$_Compressed_pair@V?$allocator@VActions@@@std@@V?$_Vector_val@U?$_Simple_types@VActions@@@std@@@2@$00@std@@QEAA@U_One_then_variadic_args_t@1@$$QEAV?$allocator@VActions@@@1@$$QEAPEAVActions@@22@Z
	??$?0V?$allocator@VdevActions@@@std@@$$V@?$_Compressed_pair@V?$allocator@VdevActions@@@std@@V?$_Vector_val@U?$_Simple_types@VdevActions@@@std@@@2@$00@std@@QEAA@U_One_then_variadic_args_t@1@$$QEAV?$allocator@VdevActions@@@1@@Z
	??$?0V?$basic_string@DU?$char_traits@D@std@@V?$allocator@D@2@@std@@@?$allocator@U_Container_proxy@std@@@std@@QEAA@AEBV?$allocator@V?$basic_string@DU?$char_traits@D@std@@V?$allocator@D@2@@std@@@1@@Z
	??$?0VActions@@@?$allocator@U_Container_proxy@std@@@std@@QEAA@AEBV?$allocator@VActions@@@1@@Z
	??$?0VKeyValue@@@?$allocator@U_Container_proxy@std@@@std@@QEAA@AEBV?$allocator@VKeyValue@@@1@@Z
	??$?0VdevActions@@@?$allocator@U_Container_proxy@std@@@std@@QEAA@AEBV?$allocator@VdevActions@@@1@@Z
	??$?0_J$0A@@?$duration@_JU?$ratio@$00$0DLJKMKAA@@std@@@chrono@std@@QEAA@AEB_J@Z
	??$?0_J$0A@@?$duration@_JU?$ratio@$00$0DOI@@std@@@chrono@std@@QEAA@AEB_J@Z
	??$?0_JU?$ratio@$00$0DOI@@std@@$0A@@?$duration@_JU?$ratio@$00$0DLJKMKAA@@std@@@chrono@std@@QEAA@AEBV?$duration@_JU?$ratio@$00$0DOI@@std@@@12@@Z
	??$?0_JU?$ratio@$00$0PECEA@@std@@$0A@@?$duration@_JU?$ratio@$00$0DLJKMKAA@@std@@@chrono@std@@QEAA@AEBV?$duration@_JU?$ratio@$00$0PECEA@@std@@@12@@Z
	??$?0_N@?$GenericValue@U?$UTF8@D@rapidjson@@V?$MemoryPoolAllocator@VCrtAllocator@rapidjson@@@2@@rapidjson@@QEAA@_NPEAX@Z
	??$?6U?$char_traits@D@std@@@std@@YAAEAV?$basic_ostream@DU?$char_traits@D@std@@@0@AEAV10@PEBD@Z
	??$?9$00@?$GenericMemberIterator@$00U?$UTF8@D@rapidjson@@V?$MemoryPoolAllocator@VCrtAllocator@rapidjson@@@2@@rapidjson@@QEBA_NAEBV01@@Z
	??$?9$0A@@?$GenericMemberIterator@$00U?$UTF8@D@rapidjson@@V?$MemoryPoolAllocator@VCrtAllocator@rapidjson@@@2@@rapidjson@@QEBA_NAEBV?$GenericMemberIterator@$0A@U?$UTF8@D@rapidjson@@V?$MemoryPoolAllocator@VCrtAllocator@rapidjson@@@2@@1@@Z
	??$?9$0A@@?$GenericMemberIterator@$0A@U?$UTF8@D@rapidjson@@V?$MemoryPoolAllocator@VCrtAllocator@rapidjson@@@2@@rapidjson@@QEBA_NAEBV01@@Z
	??$?A$$CBD@?$GenericValue@U?$UTF8@D@rapidjson@@V?$MemoryPoolAllocator@VCrtAllocator@rapidjson@@@2@@rapidjson@@QEAAAEAV01@PEBD@Z
	??$?AV?$MemoryPoolAllocator@VCrtAllocator@rapidjson@@@rapidjson@@@?$GenericValue@U?$UTF8@D@rapidjson@@V?$MemoryPoolAllocator@VCrtAllocator@rapidjson@@@2@@rapidjson@@QEAAAEAV01@AEBV01@@Z
	??$?GUsteady_clock@chrono@std@@V?$duration@_JU?$ratio@$00$0DLJKMKAA@@std@@@12@V312@@chrono@std@@YA?AV?$duration@_JU?$ratio@$00$0DLJKMKAA@@std@@@01@AEBV?$time_point@Usteady_clock@chrono@std@@V?$duration@_JU?$ratio@$00$0DLJKMKAA@@std@@@23@@01@0@Z
	??$?GUsteady_clock@chrono@std@@V?$duration@_JU?$ratio@$00$0DLJKMKAA@@std@@@12@_JU?$ratio@$00$0PECEA@@2@@chrono@std@@YA?AV?$time_point@Usteady_clock@chrono@std@@V?$duration@_JU?$ratio@$00$0DLJKMKAA@@std@@@23@@01@AEBV201@AEBV?$duration@_JU?$ratio@$00$0PECEA@@std@@@01@@Z
	??$?G_JU?$ratio@$00$0DLJKMKAA@@std@@_JU01@@chrono@std@@YA?AV?$duration@_JU?$ratio@$00$0DLJKMKAA@@std@@@01@AEBV201@0@Z
	??$?G_JU?$ratio@$00$0DLJKMKAA@@std@@_JU?$ratio@$00$0PECEA@@1@@chrono@std@@YA?AV?$duration@_JU?$ratio@$00$0DLJKMKAA@@std@@@01@AEBV201@AEBV?$duration@_JU?$ratio@$00$0PECEA@@std@@@01@@Z
	??$?__MUsteady_clock@chrono@std@@V?$duration@_JU?$ratio@$00$0DLJKMKAA@@std@@@12@V312@@chrono@std@@YA?A_PAEBV?$time_point@Usteady_clock@chrono@std@@V?$duration@_JU?$ratio@$00$0DLJKMKAA@@std@@@23@@01@0@Z
	??$?__M_JU?$ratio@$00$0DLJKMKAA@@std@@_JU01@@chrono@std@@YA?A_PAEBV?$duration@_JU?$ratio@$00$0DLJKMKAA@@std@@@01@0@Z
	??$?__M_JU?$ratio@$00$0DLJKMKAA@@std@@_JU?$ratio@$00$0DOI@@1@@chrono@std@@YA?A_PAEBV?$duration@_JU?$ratio@$00$0DLJKMKAA@@std@@@01@AEBV?$duration@_JU?$ratio@$00$0DOI@@std@@@01@@Z
	??$?__M_JU?$ratio@$00$0DOI@@std@@_JU?$ratio@$00$0DLJKMKAA@@1@@chrono@std@@YA?A_PAEBV?$duration@_JU?$ratio@$00$0DOI@@std@@@01@AEBV?$duration@_JU?$ratio@$00$0DLJKMKAA@@std@@@01@@Z
	??$?__M_JU?$ratio@$00$0PECEA@@std@@_JU01@@chrono@std@@YA?A_PAEBV?$duration@_JU?$ratio@$00$0PECEA@@std@@@01@0@Z
	??$Consume@U?$GenericStringStream@U?$UTF8@D@rapidjson@@@rapidjson@@@?$GenericReader@U?$UTF8@D@rapidjson@@U12@VCrtAllocator@2@@rapidjson@@CA_NAEAU?$GenericStringStream@U?$UTF8@D@rapidjson@@@1@D@Z
	??$Consume@V?$NumberStream@U?$GenericStringStream@U?$UTF8@D@rapidjson@@@rapidjson@@$0A@$0A@@?$GenericReader@U?$UTF8@D@rapidjson@@U12@VCrtAllocator@2@@rapidjson@@@?$GenericReader@U?$UTF8@D@rapidjson@@U12@VCrtAllocator@2@@rapidjson@@CA_NAEAV?$NumberStream@U?$GenericStringStream@U?$UTF8@D@rapidjson@@@rapidjson@@$0A@$0A@@01@D@Z
	??$Encode@U?$GenericStringStream@U?$UTF8@D@rapidjson@@@rapidjson@@@?$UTF8@D@rapidjson@@SAXAEAU?$GenericStringStream@U?$UTF8@D@rapidjson@@@1@I@Z
	??$Encode@V?$StackStream@D@?$GenericReader@U?$UTF8@D@rapidjson@@U12@VCrtAllocator@2@@rapidjson@@@?$UTF8@D@rapidjson@@SAXAEAV?$StackStream@D@?$GenericReader@U?$UTF8@D@rapidjson@@U12@VCrtAllocator@2@@1@I@Z
	??$Expand@D@?$Stack@VCrtAllocator@rapidjson@@@internal@rapidjson@@AEAAX_K@Z
	??$Expand@I@?$Stack@VCrtAllocator@rapidjson@@@internal@rapidjson@@AEAAX_K@Z
	??$Expand@V?$GenericValue@U?$UTF8@D@rapidjson@@V?$MemoryPoolAllocator@VCrtAllocator@rapidjson@@@2@@rapidjson@@@?$Stack@VCrtAllocator@rapidjson@@@internal@rapidjson@@AEAAX_K@Z
	??$FindMember@V?$MemoryPoolAllocator@VCrtAllocator@rapidjson@@@rapidjson@@@?$GenericValue@U?$UTF8@D@rapidjson@@V?$MemoryPoolAllocator@VCrtAllocator@rapidjson@@@2@@rapidjson@@QEAA?AV?$GenericMemberIterator@$0A@U?$UTF8@D@rapidjson@@V?$MemoryPoolAllocator@VCrtAllocator@rapidjson@@@2@@1@AEBV01@@Z
	??$HandleError@U?$GenericStringStream@U?$UTF8@D@rapidjson@@@rapidjson@@@?$GenericReader@U?$UTF8@D@rapidjson@@U12@VCrtAllocator@2@@rapidjson@@AEAAXW4IterativeParsingState@01@AEAU?$GenericStringStream@U?$UTF8@D@rapidjson@@@1@@Z
	??$IterativeParse@$0A@U?$GenericStringStream@U?$UTF8@D@rapidjson@@@rapidjson@@V?$GenericDocument@U?$UTF8@D@rapidjson@@V?$MemoryPoolAllocator@VCrtAllocator@rapidjson@@@2@VCrtAllocator@2@@2@@?$GenericReader@U?$UTF8@D@rapidjson@@U12@VCrtAllocator@2@@rapidjson@@AEAA?AUParseResult@1@AEAU?$GenericStringStream@U?$UTF8@D@rapidjson@@@1@AEAV?$GenericDocument@U?$UTF8@D@rapidjson@@V?$MemoryPoolAllocator@VCrtAllocator@rapidjson@@@2@VCrtAllocator@2@@1@@Z
	??$Min3@H@internal@rapidjson@@YAHHHH@Z
	??$Parse@$0A@@?$GenericDocument@U?$UTF8@D@rapidjson@@V?$MemoryPoolAllocator@VCrtAllocator@rapidjson@@@2@VCrtAllocator@2@@rapidjson@@QEAAAEAV01@AEBV?$basic_string@DU?$char_traits@D@std@@V?$allocator@D@2@@std@@@Z
	??$Parse@$0A@U?$GenericStringStream@U?$UTF8@D@rapidjson@@@rapidjson@@V?$GenericDocument@U?$UTF8@D@rapidjson@@V?$MemoryPoolAllocator@VCrtAllocator@rapidjson@@@2@VCrtAllocator@2@@2@@?$GenericReader@U?$UTF8@D@rapidjson@@U12@VCrtAllocator@2@@rapidjson@@QEAA?AUParseResult@1@AEAU?$GenericStringStream@U?$UTF8@D@rapidjson@@@1@AEAV?$GenericDocument@U?$UTF8@D@rapidjson@@V?$MemoryPoolAllocator@VCrtAllocator@rapidjson@@@2@VCrtAllocator@2@@1@@Z
	??$Parse@$0A@U?$UTF8@D@rapidjson@@@?$GenericDocument@U?$UTF8@D@rapidjson@@V?$MemoryPoolAllocator@VCrtAllocator@rapidjson@@@2@VCrtAllocator@2@@rapidjson@@QEAAAEAV01@PEBD@Z
	??$ParseArray@$0A@U?$GenericStringStream@U?$UTF8@D@rapidjson@@@rapidjson@@V?$GenericDocument@U?$UTF8@D@rapidjson@@V?$MemoryPoolAllocator@VCrtAllocator@rapidjson@@@2@VCrtAllocator@2@@2@@?$GenericReader@U?$UTF8@D@rapidjson@@U12@VCrtAllocator@2@@rapidjson@@AEAAXAEAU?$GenericStringStream@U?$UTF8@D@rapidjson@@@1@AEAV?$GenericDocument@U?$UTF8@D@rapidjson@@V?$MemoryPoolAllocator@VCrtAllocator@rapidjson@@@2@VCrtAllocator@2@@1@@Z
	??$ParseFalse@$0A@U?$GenericStringStream@U?$UTF8@D@rapidjson@@@rapidjson@@V?$GenericDocument@U?$UTF8@D@rapidjson@@V?$MemoryPoolAllocator@VCrtAllocator@rapidjson@@@2@VCrtAllocator@2@@2@@?$GenericReader@U?$UTF8@D@rapidjson@@U12@VCrtAllocator@2@@rapidjson@@AEAAXAEAU?$GenericStringStream@U?$UTF8@D@rapidjson@@@1@AEAV?$GenericDocument@U?$UTF8@D@rapidjson@@V?$MemoryPoolAllocator@VCrtAllocator@rapidjson@@@2@VCrtAllocator@2@@1@@Z
	??$ParseHex4@U?$GenericStringStream@U?$UTF8@D@rapidjson@@@rapidjson@@@?$GenericReader@U?$UTF8@D@rapidjson@@U12@VCrtAllocator@2@@rapidjson@@AEAAIAEAU?$GenericStringStream@U?$UTF8@D@rapidjson@@@1@_K@Z
	??$ParseNull@$0A@U?$GenericStringStream@U?$UTF8@D@rapidjson@@@rapidjson@@V?$GenericDocument@U?$UTF8@D@rapidjson@@V?$MemoryPoolAllocator@VCrtAllocator@rapidjson@@@2@VCrtAllocator@2@@2@@?$GenericReader@U?$UTF8@D@rapidjson@@U12@VCrtAllocator@2@@rapidjson@@AEAAXAEAU?$GenericStringStream@U?$UTF8@D@rapidjson@@@1@AEAV?$GenericDocument@U?$UTF8@D@rapidjson@@V?$MemoryPoolAllocator@VCrtAllocator@rapidjson@@@2@VCrtAllocator@2@@1@@Z
	??$ParseNumber@$0A@U?$GenericStringStream@U?$UTF8@D@rapidjson@@@rapidjson@@V?$GenericDocument@U?$UTF8@D@rapidjson@@V?$MemoryPoolAllocator@VCrtAllocator@rapidjson@@@2@VCrtAllocator@2@@2@@?$GenericReader@U?$UTF8@D@rapidjson@@U12@VCrtAllocator@2@@rapidjson@@AEAAXAEAU?$GenericStringStream@U?$UTF8@D@rapidjson@@@1@AEAV?$GenericDocument@U?$UTF8@D@rapidjson@@V?$MemoryPoolAllocator@VCrtAllocator@rapidjson@@@2@VCrtAllocator@2@@1@@Z
	??$ParseObject@$0A@U?$GenericStringStream@U?$UTF8@D@rapidjson@@@rapidjson@@V?$GenericDocument@U?$UTF8@D@rapidjson@@V?$MemoryPoolAllocator@VCrtAllocator@rapidjson@@@2@VCrtAllocator@2@@2@@?$GenericReader@U?$UTF8@D@rapidjson@@U12@VCrtAllocator@2@@rapidjson@@AEAAXAEAU?$GenericStringStream@U?$UTF8@D@rapidjson@@@1@AEAV?$GenericDocument@U?$UTF8@D@rapidjson@@V?$MemoryPoolAllocator@VCrtAllocator@rapidjson@@@2@VCrtAllocator@2@@1@@Z
	??$ParseStream@$0A@U?$UTF8@D@rapidjson@@U?$GenericStringStream@U?$UTF8@D@rapidjson@@@2@@?$GenericDocument@U?$UTF8@D@rapidjson@@V?$MemoryPoolAllocator@VCrtAllocator@rapidjson@@@2@VCrtAllocator@2@@rapidjson@@QEAAAEAV01@AEAU?$GenericStringStream@U?$UTF8@D@rapidjson@@@1@@Z
	??$ParseString@$0A@U?$GenericStringStream@U?$UTF8@D@rapidjson@@@rapidjson@@V?$GenericDocument@U?$UTF8@D@rapidjson@@V?$MemoryPoolAllocator@VCrtAllocator@rapidjson@@@2@VCrtAllocator@2@@2@@?$GenericReader@U?$UTF8@D@rapidjson@@U12@VCrtAllocator@2@@rapidjson@@AEAAXAEAU?$GenericStringStream@U?$UTF8@D@rapidjson@@@1@AEAV?$GenericDocument@U?$UTF8@D@rapidjson@@V?$MemoryPoolAllocator@VCrtAllocator@rapidjson@@@2@VCrtAllocator@2@@1@_N@Z
	??$ParseStringToStream@$0A@U?$UTF8@D@rapidjson@@U12@U?$GenericStringStream@U?$UTF8@D@rapidjson@@@2@U32@@?$GenericReader@U?$UTF8@D@rapidjson@@U12@VCrtAllocator@2@@rapidjson@@AEAAXAEAU?$GenericStringStream@U?$UTF8@D@rapidjson@@@1@0@Z
	??$ParseStringToStream@$0A@U?$UTF8@D@rapidjson@@U12@U?$GenericStringStream@U?$UTF8@D@rapidjson@@@2@V?$StackStream@D@?$GenericReader@U?$UTF8@D@rapidjson@@U12@VCrtAllocator@2@@2@@?$GenericReader@U?$UTF8@D@rapidjson@@U12@VCrtAllocator@2@@rapidjson@@AEAAXAEAU?$GenericStringStream@U?$UTF8@D@rapidjson@@@1@AEAV?$StackStream@D@01@@Z
	??$ParseTrue@$0A@U?$GenericStringStream@U?$UTF8@D@rapidjson@@@rapidjson@@V?$GenericDocument@U?$UTF8@D@rapidjson@@V?$MemoryPoolAllocator@VCrtAllocator@rapidjson@@@2@VCrtAllocator@2@@2@@?$GenericReader@U?$UTF8@D@rapidjson@@U12@VCrtAllocator@2@@rapidjson@@AEAAXAEAU?$GenericStringStream@U?$UTF8@D@rapidjson@@@1@AEAV?$GenericDocument@U?$UTF8@D@rapidjson@@V?$MemoryPoolAllocator@VCrtAllocator@rapidjson@@@2@VCrtAllocator@2@@1@@Z
	??$ParseValue@$0A@U?$GenericStringStream@U?$UTF8@D@rapidjson@@@rapidjson@@V?$GenericDocument@U?$UTF8@D@rapidjson@@V?$MemoryPoolAllocator@VCrtAllocator@rapidjson@@@2@VCrtAllocator@2@@2@@?$GenericReader@U?$UTF8@D@rapidjson@@U12@VCrtAllocator@2@@rapidjson@@AEAAXAEAU?$GenericStringStream@U?$UTF8@D@rapidjson@@@1@AEAV?$GenericDocument@U?$UTF8@D@rapidjson@@V?$MemoryPoolAllocator@VCrtAllocator@rapidjson@@@2@VCrtAllocator@2@@1@@Z
	??$Pop@D@?$Stack@VCrtAllocator@rapidjson@@@internal@rapidjson@@QEAAPEAD_K@Z
	??$Pop@I@?$Stack@VCrtAllocator@rapidjson@@@internal@rapidjson@@QEAAPEAI_K@Z
	??$Pop@V?$GenericMember@U?$UTF8@D@rapidjson@@V?$MemoryPoolAllocator@VCrtAllocator@rapidjson@@@2@@rapidjson@@@?$Stack@VCrtAllocator@rapidjson@@@internal@rapidjson@@QEAAPEAV?$GenericMember@U?$UTF8@D@rapidjson@@V?$MemoryPoolAllocator@VCrtAllocator@rapidjson@@@2@@2@_K@Z
	??$Pop@V?$GenericValue@U?$UTF8@D@rapidjson@@V?$MemoryPoolAllocator@VCrtAllocator@rapidjson@@@2@@rapidjson@@@?$Stack@VCrtAllocator@rapidjson@@@internal@rapidjson@@QEAAPEAV?$GenericValue@U?$UTF8@D@rapidjson@@V?$MemoryPoolAllocator@VCrtAllocator@rapidjson@@@2@@2@_K@Z
	??$Push@D@?$Stack@VCrtAllocator@rapidjson@@@internal@rapidjson@@QEAAPEAD_K@Z
	??$Push@I@?$Stack@VCrtAllocator@rapidjson@@@internal@rapidjson@@QEAAPEAI_K@Z
	??$Push@V?$GenericValue@U?$UTF8@D@rapidjson@@V?$MemoryPoolAllocator@VCrtAllocator@rapidjson@@@2@@rapidjson@@@?$Stack@VCrtAllocator@rapidjson@@@internal@rapidjson@@QEAAPEAV?$GenericValue@U?$UTF8@D@rapidjson@@V?$MemoryPoolAllocator@VCrtAllocator@rapidjson@@@2@@2@_K@Z
	??$PushUnsafe@D@?$Stack@VCrtAllocator@rapidjson@@@internal@rapidjson@@QEAAPEAD_K@Z
	??$PushUnsafe@I@?$Stack@VCrtAllocator@rapidjson@@@internal@rapidjson@@QEAAPEAI_K@Z
	??$PushUnsafe@V?$GenericValue@U?$UTF8@D@rapidjson@@V?$MemoryPoolAllocator@VCrtAllocator@rapidjson@@@2@@rapidjson@@@?$Stack@VCrtAllocator@rapidjson@@@internal@rapidjson@@QEAAPEAV?$GenericValue@U?$UTF8@D@rapidjson@@V?$MemoryPoolAllocator@VCrtAllocator@rapidjson@@@2@@2@_K@Z
	??$Reserve@D@?$Stack@VCrtAllocator@rapidjson@@@internal@rapidjson@@QEAAX_K@Z
	??$Reserve@I@?$Stack@VCrtAllocator@rapidjson@@@internal@rapidjson@@QEAAX_K@Z
	??$Reserve@V?$GenericValue@U?$UTF8@D@rapidjson@@V?$MemoryPoolAllocator@VCrtAllocator@rapidjson@@@2@@rapidjson@@@?$Stack@VCrtAllocator@rapidjson@@@internal@rapidjson@@QEAAX_K@Z
	??$ScanCopyUnescapedString@U?$GenericStringStream@U?$UTF8@D@rapidjson@@@rapidjson@@U12@@?$GenericReader@U?$UTF8@D@rapidjson@@U12@VCrtAllocator@2@@rapidjson@@CAXAEAU?$GenericStringStream@U?$UTF8@D@rapidjson@@@1@0@Z
	??$ScanCopyUnescapedString@U?$GenericStringStream@U?$UTF8@D@rapidjson@@@rapidjson@@V?$StackStream@D@?$GenericReader@U?$UTF8@D@rapidjson@@U12@VCrtAllocator@2@@2@@?$GenericReader@U?$UTF8@D@rapidjson@@U12@VCrtAllocator@2@@rapidjson@@CAXAEAU?$GenericStringStream@U?$UTF8@D@rapidjson@@@1@AEAV?$StackStream@D@01@@Z
	??$SkipWhitespace@U?$GenericStringStream@U?$UTF8@D@rapidjson@@@rapidjson@@@rapidjson@@YAXAEAU?$GenericStringStream@U?$UTF8@D@rapidjson@@@0@@Z
	??$SkipWhitespaceAndComments@$0A@U?$GenericStringStream@U?$UTF8@D@rapidjson@@@rapidjson@@@?$GenericReader@U?$UTF8@D@rapidjson@@U12@VCrtAllocator@2@@rapidjson@@AEAAXAEAU?$GenericStringStream@U?$UTF8@D@rapidjson@@@1@@Z
	??$StrLen@D@internal@rapidjson@@YAIPEBD@Z
	??$StringEqual@V?$MemoryPoolAllocator@VCrtAllocator@rapidjson@@@rapidjson@@@?$GenericValue@U?$UTF8@D@rapidjson@@V?$MemoryPoolAllocator@VCrtAllocator@rapidjson@@@2@@rapidjson@@AEBA_NAEBV01@@Z
	??$StringRef@D@rapidjson@@YA?AU?$GenericStringRef@D@0@PEBD@Z
	??$StringRef@D@rapidjson@@YA?AU?$GenericStringRef@D@0@PEBD_K@Z
	??$Top@I@?$Stack@VCrtAllocator@rapidjson@@@internal@rapidjson@@QEAAPEAIXZ
	??$Top@V?$GenericValue@U?$UTF8@D@rapidjson@@V?$MemoryPoolAllocator@VCrtAllocator@rapidjson@@@2@@rapidjson@@@?$Stack@VCrtAllocator@rapidjson@@@internal@rapidjson@@QEAAPEAV?$GenericValue@U?$UTF8@D@rapidjson@@V?$MemoryPoolAllocator@VCrtAllocator@rapidjson@@@2@@2@XZ
	??$Transcode@U?$GenericStringStream@U?$UTF8@D@rapidjson@@@rapidjson@@U12@@?$Transcoder@U?$UTF8@D@rapidjson@@U12@@rapidjson@@SA_NAEAU?$GenericStringStream@U?$UTF8@D@rapidjson@@@1@0@Z
	??$Transcode@U?$GenericStringStream@U?$UTF8@D@rapidjson@@@rapidjson@@V?$StackStream@D@?$GenericReader@U?$UTF8@D@rapidjson@@U12@VCrtAllocator@2@@2@@?$Transcoder@U?$UTF8@D@rapidjson@@U12@@rapidjson@@SA_NAEAU?$GenericStringStream@U?$UTF8@D@rapidjson@@@1@AEAV?$StackStream@D@?$GenericReader@U?$UTF8@D@rapidjson@@U12@VCrtAllocator@2@@1@@Z
	??$Transit@$0A@U?$GenericStringStream@U?$UTF8@D@rapidjson@@@rapidjson@@V?$GenericDocument@U?$UTF8@D@rapidjson@@V?$MemoryPoolAllocator@VCrtAllocator@rapidjson@@@2@VCrtAllocator@2@@2@@?$GenericReader@U?$UTF8@D@rapidjson@@U12@VCrtAllocator@2@@rapidjson@@AEAA?AW4IterativeParsingState@01@W4201@W4Token@01@0AEAU?$GenericStringStream@U?$UTF8@D@rapidjson@@@1@AEAV?$GenericDocument@U?$UTF8@D@rapidjson@@V?$MemoryPoolAllocator@VCrtAllocator@rapidjson@@@2@VCrtAllocator@2@@1@@Z
	??$Validate@U?$GenericStringStream@U?$UTF8@D@rapidjson@@@rapidjson@@U12@@?$Transcoder@U?$UTF8@D@rapidjson@@U12@@rapidjson@@SA_NAEAU?$GenericStringStream@U?$UTF8@D@rapidjson@@@1@0@Z
	??$Validate@U?$GenericStringStream@U?$UTF8@D@rapidjson@@@rapidjson@@U12@@?$UTF8@D@rapidjson@@SA_NAEAU?$GenericStringStream@U?$UTF8@D@rapidjson@@@1@0@Z
	??$Validate@U?$GenericStringStream@U?$UTF8@D@rapidjson@@@rapidjson@@V?$StackStream@D@?$GenericReader@U?$UTF8@D@rapidjson@@U12@VCrtAllocator@2@@2@@?$Transcoder@U?$UTF8@D@rapidjson@@U12@@rapidjson@@SA_NAEAU?$GenericStringStream@U?$UTF8@D@rapidjson@@@1@AEAV?$StackStream@D@?$GenericReader@U?$UTF8@D@rapidjson@@U12@VCrtAllocator@2@@1@@Z
	??$Validate@U?$GenericStringStream@U?$UTF8@D@rapidjson@@@rapidjson@@V?$StackStream@D@?$GenericReader@U?$UTF8@D@rapidjson@@U12@VCrtAllocator@2@@2@@?$UTF8@D@rapidjson@@SA_NAEAU?$GenericStringStream@U?$UTF8@D@rapidjson@@@1@AEAV?$StackStream@D@?$GenericReader@U?$UTF8@D@rapidjson@@U12@VCrtAllocator@2@@1@@Z
	??$_Adl_verify_range@PEADPEAD@std@@YAXAEBQEAD0@Z
	??$_Alloc_proxy@V?$allocator@U_Container_proxy@std@@@std@@@_Container_base12@std@@QEAAX$$QEAV?$allocator@U_Container_proxy@std@@@1@@Z
	??$_Allocate@$0BA@U_Default_allocate_traits@std@@$0A@@std@@YAPEAX_K@Z
	??$_Allocate_at_least_helper@V?$allocator@D@std@@@std@@YAPEADAEAV?$allocator@D@0@AEA_K@Z
	??$_Allocate_at_least_helper@V?$allocator@V?$basic_string@DU?$char_traits@D@std@@V?$allocator@D@2@@std@@@std@@@std@@YAPEAV?$basic_string@DU?$char_traits@D@std@@V?$allocator@D@2@@0@AEAV?$allocator@V?$basic_string@DU?$char_traits@D@std@@V?$allocator@D@2@@std@@@0@AEA_K@Z
	??$_Allocate_at_least_helper@V?$allocator@VActions@@@std@@@std@@YAPEAVActions@@AEAV?$allocator@VActions@@@0@AEA_K@Z
	??$_Allocate_at_least_helper@V?$allocator@VKeyValue@@@std@@@std@@YAPEAVKeyValue@@AEAV?$allocator@VKeyValue@@@0@AEA_K@Z
	??$_Allocate_at_least_helper@V?$allocator@VModeType@@@std@@@std@@YAPEAVModeType@@AEAV?$allocator@VModeType@@@0@AEA_K@Z
	??$_Allocate_at_least_helper@V?$allocator@VdevActions@@@std@@@std@@YAPEAVdevActions@@AEAV?$allocator@VdevActions@@@0@AEA_K@Z
	??$_Allocate_for_capacity@$0A@@?$basic_string@DU?$char_traits@D@std@@V?$allocator@D@2@@std@@CAPEADAEAV?$allocator@D@1@AEA_K@Z
	??$_Allocate_manually_vector_aligned@U_Default_allocate_traits@std@@@std@@YAPEAX_K@Z
	??$_Construct@$00PEAD@?$basic_string@DU?$char_traits@D@std@@V?$allocator@D@2@@std@@AEAAXQEAD_K@Z
	??$_Construct@$00PEBD@?$basic_string@DU?$char_traits@D@std@@V?$allocator@D@2@@std@@AEAAXQEBD_K@Z
	??$_Construct@$01PEBD@?$basic_string@DU?$char_traits@D@std@@V?$allocator@D@2@@std@@AEAAXQEBD_K@Z
	??$_Construct_in_place@PEADAEAPEAD@std@@YAXAEAPEAD0@Z
	??$_Construct_in_place@PEADAEBQEAD@std@@YAXAEAPEADAEBQEAD@Z
	??$_Construct_in_place@U_Container_proxy@std@@PEAU_Container_base12@2@@std@@YAXAEAU_Container_proxy@0@$$QEAPEAU_Container_base12@0@@Z
	??$_Construct_n@AEBQEAV?$basic_string@DU?$char_traits@D@std@@V?$allocator@D@2@@std@@AEBQEAV12@@?$vector@V?$basic_string@DU?$char_traits@D@std@@V?$allocator@D@2@@std@@V?$allocator@V?$basic_string@DU?$char_traits@D@std@@V?$allocator@D@2@@std@@@2@@std@@AEAAX_KAEBQEAV?$basic_string@DU?$char_traits@D@std@@V?$allocator@D@2@@1@1@Z
	??$_Construct_n@AEBQEAVActions@@AEBQEAV1@@?$vector@VActions@@V?$allocator@VActions@@@std@@@std@@AEAAX_KAEBQEAVActions@@1@Z
	??$_Construct_n@AEBQEAVdevActions@@AEBQEAV1@@?$vector@VdevActions@@V?$allocator@VdevActions@@@std@@@std@@AEAAX_KAEBQEAVdevActions@@1@Z
	??$_Convert_size@_K_K@std@@YA_K_K@Z
	??$_Deallocate@$0BA@$0A@@std@@YAXPEAX_K@Z
	??$_Deallocate_plain@V?$allocator@U_Container_proxy@std@@@std@@@std@@YAXAEAV?$allocator@U_Container_proxy@std@@@0@QEAU_Container_proxy@0@@Z
	??$_Delete_plain_internal@V?$allocator@U_Container_proxy@std@@@std@@@std@@YAXAEAV?$allocator@U_Container_proxy@std@@@0@QEAU_Container_proxy@0@@Z
	??$_Destroy_in_place@PEAD@std@@YAXAEAPEAD@Z
	??$_Destroy_range@V?$allocator@V?$basic_string@DU?$char_traits@D@std@@V?$allocator@D@2@@std@@@std@@@std@@YAXPEAV?$basic_string@DU?$char_traits@D@std@@V?$allocator@D@2@@0@QEAV10@AEAV?$allocator@V?$basic_string@DU?$char_traits@D@std@@V?$allocator@D@2@@std@@@0@@Z
	??$_Destroy_range@V?$allocator@VActions@@@std@@@std@@YAXPEAVActions@@QEAV1@AEAV?$allocator@VActions@@@0@@Z
	??$_Destroy_range@V?$allocator@VKeyValue@@@std@@@std@@YAXPEAVKeyValue@@QEAV1@AEAV?$allocator@VKeyValue@@@0@@Z
	??$_Destroy_range@V?$allocator@VModeType@@@std@@@std@@YAXPEAVModeType@@QEAV1@AEAV?$allocator@VModeType@@@0@@Z
	??$_Destroy_range@V?$allocator@VdevActions@@@std@@@std@@YAXPEAVdevActions@@QEAV1@AEAV?$allocator@VdevActions@@@0@@Z
	??$_Emplace_back@AEAV?$basic_string@DU?$char_traits@D@std@@V?$allocator@D@2@@std@@@?$_Uninitialized_backout_al@V?$allocator@V?$basic_string@DU?$char_traits@D@std@@V?$allocator@D@2@@std@@@std@@@std@@QEAAXAEAV?$basic_string@DU?$char_traits@D@std@@V?$allocator@D@2@@1@@Z
	??$_Emplace_back@AEAVActions@@@?$_Uninitialized_backout_al@V?$allocator@VActions@@@std@@@std@@QEAAXAEAVActions@@@Z
	??$_Emplace_back@AEAVdevActions@@@?$_Uninitialized_backout_al@V?$allocator@VdevActions@@@std@@@std@@QEAAXAEAVdevActions@@@Z
	??$_Emplace_back@V?$basic_string@DU?$char_traits@D@std@@V?$allocator@D@2@@std@@@?$_Uninitialized_backout_al@V?$allocator@V?$basic_string@DU?$char_traits@D@std@@V?$allocator@D@2@@std@@@std@@@std@@QEAAX$$QEAV?$basic_string@DU?$char_traits@D@std@@V?$allocator@D@2@@1@@Z
	??$_Emplace_back@VActions@@@?$_Uninitialized_backout_al@V?$allocator@VActions@@@std@@@std@@QEAAX$$QEAVActions@@@Z
	??$_Emplace_back@VKeyValue@@@?$_Uninitialized_backout_al@V?$allocator@VKeyValue@@@std@@@std@@QEAAX$$QEAVKeyValue@@@Z
	??$_Emplace_back@VModeType@@@?$_Uninitialized_backout_al@V?$allocator@VModeType@@@std@@@std@@QEAAX$$QEAVModeType@@@Z
	??$_Emplace_back@VdevActions@@@?$_Uninitialized_backout_al@V?$allocator@VdevActions@@@std@@@std@@QEAAX$$QEAVdevActions@@@Z
	??$_Emplace_back_with_unused_capacity@AEBV?$basic_string@DU?$char_traits@D@std@@V?$allocator@D@2@@std@@@?$vector@V?$basic_string@DU?$char_traits@D@std@@V?$allocator@D@2@@std@@V?$allocator@V?$basic_string@DU?$char_traits@D@std@@V?$allocator@D@2@@std@@@2@@std@@AEAAAEAV?$basic_string@DU?$char_traits@D@std@@V?$allocator@D@2@@1@AEBV21@@Z
	??$_Emplace_back_with_unused_capacity@AEBVActions@@@?$vector@VActions@@V?$allocator@VActions@@@std@@@std@@AEAAAEAVActions@@AEBV2@@Z
	??$_Emplace_back_with_unused_capacity@AEBVKeyValue@@@?$vector@VKeyValue@@V?$allocator@VKeyValue@@@std@@@std@@AEAAAEAVKeyValue@@AEBV2@@Z
	??$_Emplace_back_with_unused_capacity@AEBVModeType@@@?$vector@VModeType@@V?$allocator@VModeType@@@std@@@std@@AEAAAEAVModeType@@AEBV2@@Z
	??$_Emplace_back_with_unused_capacity@AEBVdevActions@@@?$vector@VdevActions@@V?$allocator@VdevActions@@@std@@@std@@AEAAAEAVdevActions@@AEBV2@@Z
	??$_Emplace_back_with_unused_capacity@VdevActions@@@?$vector@VdevActions@@V?$allocator@VdevActions@@@std@@@std@@AEAAAEAVdevActions@@$$QEAV2@@Z
	??$_Emplace_one_at_back@AEBV?$basic_string@DU?$char_traits@D@std@@V?$allocator@D@2@@std@@@?$vector@V?$basic_string@DU?$char_traits@D@std@@V?$allocator@D@2@@std@@V?$allocator@V?$basic_string@DU?$char_traits@D@std@@V?$allocator@D@2@@std@@@2@@std@@AEAAAEAV?$basic_string@DU?$char_traits@D@std@@V?$allocator@D@2@@1@AEBV21@@Z
	??$_Emplace_one_at_back@AEBVActions@@@?$vector@VActions@@V?$allocator@VActions@@@std@@@std@@AEAAAEAVActions@@AEBV2@@Z
	??$_Emplace_one_at_back@AEBVKeyValue@@@?$vector@VKeyValue@@V?$allocator@VKeyValue@@@std@@@std@@AEAAAEAVKeyValue@@AEBV2@@Z
	??$_Emplace_one_at_back@AEBVModeType@@@?$vector@VModeType@@V?$allocator@VModeType@@@std@@@std@@AEAAAEAVModeType@@AEBV2@@Z
	??$_Emplace_one_at_back@AEBVdevActions@@@?$vector@VdevActions@@V?$allocator@VdevActions@@@std@@@std@@AEAAAEAVdevActions@@AEBV2@@Z
	??$_Emplace_one_at_back@VdevActions@@@?$vector@VdevActions@@V?$allocator@VdevActions@@@std@@@std@@AEAAAEAVdevActions@@$$QEAV2@@Z
	??$_Emplace_reallocate@AEBV?$basic_string@DU?$char_traits@D@std@@V?$allocator@D@2@@std@@@?$vector@V?$basic_string@DU?$char_traits@D@std@@V?$allocator@D@2@@std@@V?$allocator@V?$basic_string@DU?$char_traits@D@std@@V?$allocator@D@2@@std@@@2@@std@@AEAAPEAV?$basic_string@DU?$char_traits@D@std@@V?$allocator@D@2@@1@QEAV21@AEBV21@@Z
	??$_Emplace_reallocate@AEBVActions@@@?$vector@VActions@@V?$allocator@VActions@@@std@@@std@@AEAAPEAVActions@@QEAV2@AEBV2@@Z
	??$_Emplace_reallocate@AEBVKeyValue@@@?$vector@VKeyValue@@V?$allocator@VKeyValue@@@std@@@std@@AEAAPEAVKeyValue@@QEAV2@AEBV2@@Z
	??$_Emplace_reallocate@AEBVModeType@@@?$vector@VModeType@@V?$allocator@VModeType@@@std@@@std@@AEAAPEAVModeType@@QEAV2@AEBV2@@Z
	??$_Emplace_reallocate@AEBVdevActions@@@?$vector@VdevActions@@V?$allocator@VdevActions@@@std@@@std@@AEAAPEAVdevActions@@QEAV2@AEBV2@@Z
	??$_Emplace_reallocate@VdevActions@@@?$vector@VdevActions@@V?$allocator@VdevActions@@@std@@@std@@AEAAPEAVdevActions@@QEAV2@$$QEAV2@@Z
	??$_Fgetc@D@std@@YA_NAEADPEAU_iobuf@@@Z
	??$_Fputc@D@std@@YA_NDPEAU_iobuf@@@Z
	??$_Get_size_of_n@$00@std@@YA_K_K@Z
	??$_Get_size_of_n@$0BA@@std@@YA_K_K@Z
	??$_Get_size_of_n@$0CI@@std@@YA_K_K@Z
	??$_Get_size_of_n@$0EI@@std@@YA_K_K@Z
	??$_Get_size_of_n@$0FA@@std@@YA_K_K@Z
	??$_Get_size_of_n@$0IA@@std@@YA_K_K@Z
	??$_Get_size_of_n@$0KI@@std@@YA_K_K@Z
	??$_Get_unwrapped@AEAPEAD@std@@YA?A_TAEAPEAD@Z
	??$_Get_unwrapped@AEBQEAV?$basic_string@DU?$char_traits@D@std@@V?$allocator@D@2@@std@@@std@@YA?A_TAEBQEAV?$basic_string@DU?$char_traits@D@std@@V?$allocator@D@2@@0@@Z
	??$_Get_unwrapped@AEBQEAVActions@@@std@@YA?A_TAEBQEAVActions@@@Z
	??$_Get_unwrapped@AEBQEAVKeyValue@@@std@@YA?A_TAEBQEAVKeyValue@@@Z
	??$_Get_unwrapped@AEBQEAVModeType@@@std@@YA?A_TAEBQEAVModeType@@@Z
	??$_Get_unwrapped@AEBQEAVdevActions@@@std@@YA?A_TAEBQEAVdevActions@@@Z
	??$_Getvals@_W@?$time_get@DV?$istreambuf_iterator@DU?$char_traits@D@std@@@std@@@std@@IEAAX_WAEBV_Locinfo@1@@Z
	??$_Getvals@_W@?$time_get@_WV?$istreambuf_iterator@_WU?$char_traits@_W@std@@@std@@@std@@IEAAX_WAEBV_Locinfo@1@@Z
	??$_Integral_to_string@DH@std@@YA?AV?$basic_string@DU?$char_traits@D@std@@V?$allocator@D@2@@0@H@Z
	??$_Maklocstr@D@std@@YAPEADPEBDPEADAEBU_Cvtvec@@@Z
	??$_Maklocstr@_W@std@@YAPEA_WPEBDPEA_WAEBU_Cvtvec@@@Z
	??$_Pocca@V?$allocator@D@std@@@std@@YAXAEAV?$allocator@D@0@AEBV10@@Z
	??$_Pocma@V?$allocator@D@std@@@std@@YAXAEAV?$allocator@D@0@0@Z
	??$_Reallocate_for@V<lambda_1>@?1??assign@?$basic_string@DU?$char_traits@D@std@@V?$allocator@D@2@@std@@QEAAAEAV34@QEBD_K@Z@PEBD@?$basic_string@DU?$char_traits@D@std@@V?$allocator@D@2@@std@@AEAAAEAV01@_KV<lambda_1>@?1??assign@01@QEAAAEAV01@QEBD0@Z@PEBD@Z
	??$_Reallocate_grow_by@V<lambda_1>@?1??push_back@?$basic_string@DU?$char_traits@D@std@@V?$allocator@D@2@@std@@QEAAXD@Z@D@?$basic_string@DU?$char_traits@D@std@@V?$allocator@D@2@@std@@AEAAAEAV01@_KV<lambda_1>@?1??push_back@01@QEAAXD@Z@D@Z
	??$_Reallocate_grow_by@V<lambda_1>@?1??replace@?$basic_string@DU?$char_traits@D@std@@V?$allocator@D@2@@std@@QEAAAEAV34@_K_KQEBD0@Z@_K_KPEBD_K@?$basic_string@DU?$char_traits@D@std@@V?$allocator@D@2@@std@@AEAAAEAV01@_KV<lambda_1>@?1??replace@01@QEAAAEAV01@0_KQEBD0@Z@11PEBD1@Z
	??$_Refancy@PEAD$0A@@std@@YAPEADPEAD@Z
	??$_To_absolute_time@_JU?$ratio@$00$0PECEA@@std@@@std@@YA?A_PAEBV?$duration@_JU?$ratio@$00$0PECEA@@std@@@chrono@0@@Z
	??$_Traits_compare@U?$char_traits@D@std@@@std@@YAHQEBD_K01@Z
	??$_Traits_find@U?$char_traits@D@std@@@std@@YA_KQEBD_K101@Z
	??$_Traits_find_ch@U?$char_traits@D@std@@@std@@YA_KQEBD_K1D@Z
	??$_UIntegral_to_buff@DI@std@@YAPEADPEADI@Z
	??$_Unfancy@$$CBD@std@@YAPEBDPEBD@Z
	??$_Unfancy@D@std@@YAPEADPEAD@Z
	??$_Unfancy@U_Container_proxy@std@@@std@@YAPEAU_Container_proxy@0@PEAU10@@Z
	??$_Unfancy@V?$basic_string@DU?$char_traits@D@std@@V?$allocator@D@2@@std@@@std@@YAPEAV?$basic_string@DU?$char_traits@D@std@@V?$allocator@D@2@@0@PEAV10@@Z
	??$_Unfancy@VActions@@@std@@YAPEAVActions@@PEAV1@@Z
	??$_Unfancy@VKeyValue@@@std@@YAPEAVKeyValue@@PEAV1@@Z
	??$_Unfancy@VModeType@@@std@@YAPEAVModeType@@PEAV1@@Z
	??$_Unfancy@VdevActions@@@std@@YAPEAVdevActions@@PEAV1@@Z
	??$_Ungetc@D@std@@YA_NAEBDPEAU_iobuf@@@Z
	??$_Uninitialized_copy@PEAV?$basic_string@DU?$char_traits@D@std@@V?$allocator@D@2@@std@@PEAV12@V?$allocator@V?$basic_string@DU?$char_traits@D@std@@V?$allocator@D@2@@std@@@2@@std@@YAPEAV?$basic_string@DU?$char_traits@D@std@@V?$allocator@D@2@@0@PEAV10@00AEAV?$allocator@V?$basic_string@DU?$char_traits@D@std@@V?$allocator@D@2@@std@@@0@@Z
	??$_Uninitialized_copy@PEAVActions@@PEAV1@V?$allocator@VActions@@@std@@@std@@YAPEAVActions@@PEAV1@00AEAV?$allocator@VActions@@@0@@Z
	??$_Uninitialized_copy@PEAVdevActions@@PEAV1@V?$allocator@VdevActions@@@std@@@std@@YAPEAVdevActions@@PEAV1@00AEAV?$allocator@VdevActions@@@0@@Z
	??$_Uninitialized_move@PEAV?$basic_string@DU?$char_traits@D@std@@V?$allocator@D@2@@std@@V?$allocator@V?$basic_string@DU?$char_traits@D@std@@V?$allocator@D@2@@std@@@2@@std@@YAPEAV?$basic_string@DU?$char_traits@D@std@@V?$allocator@D@2@@0@QEAV10@0PEAV10@AEAV?$allocator@V?$basic_string@DU?$char_traits@D@std@@V?$allocator@D@2@@std@@@0@@Z
	??$_Uninitialized_move@PEAVActions@@V?$allocator@VActions@@@std@@@std@@YAPEAVActions@@QEAV1@0PEAV1@AEAV?$allocator@VActions@@@0@@Z
	??$_Uninitialized_move@PEAVKeyValue@@V?$allocator@VKeyValue@@@std@@@std@@YAPEAVKeyValue@@QEAV1@0PEAV1@AEAV?$allocator@VKeyValue@@@0@@Z
	??$_Uninitialized_move@PEAVModeType@@V?$allocator@VModeType@@@std@@@std@@YAPEAVModeType@@QEAV1@0PEAV1@AEAV?$allocator@VModeType@@@0@@Z
	??$_Uninitialized_move@PEAVdevActions@@V?$allocator@VdevActions@@@std@@@std@@YAPEAVdevActions@@QEAV1@0PEAV1@AEAV?$allocator@VdevActions@@@0@@Z
	??$_Unwrap_iter@PEAV?$basic_string@DU?$char_traits@D@std@@V?$allocator@D@2@@std@@PEAV12@@ranges@std@@YA?A_T$$QEAPEAV?$basic_string@DU?$char_traits@D@std@@V?$allocator@D@2@@1@@Z
	??$_Unwrap_iter@PEAVActions@@PEAV1@@ranges@std@@YA?A_T$$QEAPEAVActions@@@Z
	??$_Unwrap_iter@PEAVdevActions@@PEAV1@@ranges@std@@YA?A_T$$QEAPEAVdevActions@@@Z
	??$_Unwrap_sent@PEAV?$basic_string@DU?$char_traits@D@std@@V?$allocator@D@2@@std@@PEAV12@@ranges@std@@YA?A_T$$QEAPEAV?$basic_string@DU?$char_traits@D@std@@V?$allocator@D@2@@1@@Z
	??$_Unwrap_sent@PEAVActions@@PEAV1@@ranges@std@@YA?A_T$$QEAPEAVActions@@@Z
	??$_Unwrap_sent@PEAVdevActions@@PEAV1@@ranges@std@@YA?A_T$$QEAPEAVdevActions@@@Z
	??$_Verify_range@D@std@@YAXQEBD0@Z
	??$addressof@$$CBV?$basic_filebuf@DU?$char_traits@D@std@@@std@@@std@@YAPEBV?$basic_filebuf@DU?$char_traits@D@std@@@0@AEBV10@@Z
	??$addressof@$$CBV?$basic_string@DU?$char_traits@D@std@@V?$allocator@D@2@@std@@@std@@YAPEBV?$basic_string@DU?$char_traits@D@std@@V?$allocator@D@2@@0@AEBV10@@Z
	??$addressof@$$CBV?$codecvt@DDU_Mbstatet@@@std@@@std@@YAPEBV?$codecvt@DDU_Mbstatet@@@0@AEBV10@@Z
	??$addressof@D@std@@YAPEADAEAD@Z
	??$addressof@PEAD@std@@YAPEAPEADAEAPEAD@Z
	??$addressof@U_Container_base12@std@@@std@@YAPEAU_Container_base12@0@AEAU10@@Z
	??$addressof@U_Container_proxy@std@@@std@@YAPEAU_Container_proxy@0@AEAU10@@Z
	??$addressof@V?$_String_val@U?$_Simple_types@D@std@@@std@@@std@@YAPEAV?$_String_val@U?$_Simple_types@D@std@@@0@AEAV10@@Z
	??$addressof@V?$_Vector_val@U?$_Simple_types@V?$basic_string@DU?$char_traits@D@std@@V?$allocator@D@2@@std@@@std@@@std@@@std@@YAPEAV?$_Vector_val@U?$_Simple_types@V?$basic_string@DU?$char_traits@D@std@@V?$allocator@D@2@@std@@@std@@@0@AEAV10@@Z
	??$addressof@V?$basic_filebuf@DU?$char_traits@D@std@@@std@@@std@@YAPEAV?$basic_filebuf@DU?$char_traits@D@std@@@0@AEAV10@@Z
	??$addressof@V?$basic_string@DU?$char_traits@D@std@@V?$allocator@D@2@@std@@@std@@YAPEAV?$basic_string@DU?$char_traits@D@std@@V?$allocator@D@2@@0@AEAV10@@Z
	??$addressof@V?$basic_stringbuf@DU?$char_traits@D@std@@V?$allocator@D@2@@std@@@std@@YAPEAV?$basic_stringbuf@DU?$char_traits@D@std@@V?$allocator@D@2@@0@AEAV10@@Z
	??$ceil@V?$duration@_JU?$ratio@$00$0DOI@@std@@@chrono@std@@_JU?$ratio@$00$0DLJKMKAA@@3@$0A@@chrono@std@@YA?AV?$duration@_JU?$ratio@$00$0DOI@@std@@@01@AEBV?$duration@_JU?$ratio@$00$0DLJKMKAA@@std@@@01@@Z
	??$construct@V?$basic_string@DU?$char_traits@D@std@@V?$allocator@D@2@@std@@AEAV12@@?$_Default_allocator_traits@V?$allocator@V?$basic_string@DU?$char_traits@D@std@@V?$allocator@D@2@@std@@@std@@@std@@SAXAEAV?$allocator@V?$basic_string@DU?$char_traits@D@std@@V?$allocator@D@2@@std@@@1@QEAV?$basic_string@DU?$char_traits@D@std@@V?$allocator@D@2@@1@AEAV31@@Z
	??$construct@V?$basic_string@DU?$char_traits@D@std@@V?$allocator@D@2@@std@@AEBV12@@?$_Default_allocator_traits@V?$allocator@V?$basic_string@DU?$char_traits@D@std@@V?$allocator@D@2@@std@@@std@@@std@@SAXAEAV?$allocator@V?$basic_string@DU?$char_traits@D@std@@V?$allocator@D@2@@std@@@1@QEAV?$basic_string@DU?$char_traits@D@std@@V?$allocator@D@2@@1@AEBV31@@Z
	??$construct@V?$basic_string@DU?$char_traits@D@std@@V?$allocator@D@2@@std@@V12@@?$_Default_allocator_traits@V?$allocator@V?$basic_string@DU?$char_traits@D@std@@V?$allocator@D@2@@std@@@std@@@std@@SAXAEAV?$allocator@V?$basic_string@DU?$char_traits@D@std@@V?$allocator@D@2@@std@@@1@QEAV?$basic_string@DU?$char_traits@D@std@@V?$allocator@D@2@@1@$$QEAV31@@Z
	??$construct@VActions@@AEAV1@@?$_Default_allocator_traits@V?$allocator@VActions@@@std@@@std@@SAXAEAV?$allocator@VActions@@@1@QEAVActions@@AEAV3@@Z
	??$construct@VActions@@AEBV1@@?$_Default_allocator_traits@V?$allocator@VActions@@@std@@@std@@SAXAEAV?$allocator@VActions@@@1@QEAVActions@@AEBV3@@Z
	??$construct@VActions@@V1@@?$_Default_allocator_traits@V?$allocator@VActions@@@std@@@std@@SAXAEAV?$allocator@VActions@@@1@QEAVActions@@$$QEAV3@@Z
	??$construct@VKeyValue@@AEBV1@@?$_Default_allocator_traits@V?$allocator@VKeyValue@@@std@@@std@@SAXAEAV?$allocator@VKeyValue@@@1@QEAVKeyValue@@AEBV3@@Z
	??$construct@VKeyValue@@V1@@?$_Default_allocator_traits@V?$allocator@VKeyValue@@@std@@@std@@SAXAEAV?$allocator@VKeyValue@@@1@QEAVKeyValue@@$$QEAV3@@Z
	??$construct@VModeType@@AEBV1@@?$_Default_allocator_traits@V?$allocator@VModeType@@@std@@@std@@SAXAEAV?$allocator@VModeType@@@1@QEAVModeType@@AEBV3@@Z
	??$construct@VModeType@@V1@@?$_Default_allocator_traits@V?$allocator@VModeType@@@std@@@std@@SAXAEAV?$allocator@VModeType@@@1@QEAVModeType@@$$QEAV3@@Z
	??$construct@VdevActions@@AEAV1@@?$_Default_allocator_traits@V?$allocator@VdevActions@@@std@@@std@@SAXAEAV?$allocator@VdevActions@@@1@QEAVdevActions@@AEAV3@@Z
	??$construct@VdevActions@@AEBV1@@?$_Default_allocator_traits@V?$allocator@VdevActions@@@std@@@std@@SAXAEAV?$allocator@VdevActions@@@1@QEAVdevActions@@AEBV3@@Z
	??$construct@VdevActions@@V1@@?$_Default_allocator_traits@V?$allocator@VdevActions@@@std@@@std@@SAXAEAV?$allocator@VdevActions@@@1@QEAVdevActions@@$$QEAV3@@Z
	??$construct_at@D$$V$0A@@std@@YAPEADQEAD@Z
	??$construct_at@DAEBD$0A@@std@@YAPEADQEADAEBD@Z
	??$construct_at@PEADAEAPEAD$0A@@std@@YAPEAPEADQEAPEADAEAPEAD@Z
	??$construct_at@PEADAEBQEAD$0A@@std@@YAPEAPEADQEAPEADAEBQEAD@Z
	??$construct_at@U_Container_proxy@std@@PEAU_Container_base12@2@$0A@@std@@YAPEAU_Container_proxy@0@QEAU10@$$QEAPEAU_Container_base12@0@@Z
	??$construct_at@V?$basic_string@DU?$char_traits@D@std@@V?$allocator@D@2@@std@@AEAV12@$0A@@std@@YAPEAV?$basic_string@DU?$char_traits@D@std@@V?$allocator@D@2@@0@QEAV10@AEAV10@@Z
	??$construct_at@V?$basic_string@DU?$char_traits@D@std@@V?$allocator@D@2@@std@@AEBV12@$0A@@std@@YAPEAV?$basic_string@DU?$char_traits@D@std@@V?$allocator@D@2@@0@QEAV10@AEBV10@@Z
	??$construct_at@V?$basic_string@DU?$char_traits@D@std@@V?$allocator@D@2@@std@@V12@$0A@@std@@YAPEAV?$basic_string@DU?$char_traits@D@std@@V?$allocator@D@2@@0@QEAV10@$$QEAV10@@Z
	??$construct_at@VActions@@AEAV1@$0A@@std@@YAPEAVActions@@QEAV1@AEAV1@@Z
	??$construct_at@VActions@@AEBV1@$0A@@std@@YAPEAVActions@@QEAV1@AEBV1@@Z
	??$construct_at@VActions@@V1@$0A@@std@@YAPEAVActions@@QEAV1@$$QEAV1@@Z
	??$construct_at@VKeyValue@@AEBV1@$0A@@std@@YAPEAVKeyValue@@QEAV1@AEBV1@@Z
	??$construct_at@VKeyValue@@V1@$0A@@std@@YAPEAVKeyValue@@QEAV1@$$QEAV1@@Z
	??$construct_at@VModeType@@AEBV1@$0A@@std@@YAPEAVModeType@@QEAV1@AEBV1@@Z
	??$construct_at@VModeType@@V1@$0A@@std@@YAPEAVModeType@@QEAV1@$$QEAV1@@Z
	??$construct_at@VdevActions@@AEAV1@$0A@@std@@YAPEAVdevActions@@QEAV1@AEAV1@@Z
	??$construct_at@VdevActions@@AEBV1@$0A@@std@@YAPEAVdevActions@@QEAV1@AEBV1@@Z
	??$construct_at@VdevActions@@V1@$0A@@std@@YAPEAVdevActions@@QEAV1@$$QEAV1@@Z
	??$destroy@V?$basic_string@DU?$char_traits@D@std@@V?$allocator@D@2@@std@@@?$_Default_allocator_traits@V?$allocator@V?$basic_string@DU?$char_traits@D@std@@V?$allocator@D@2@@std@@@std@@@std@@SAXAEAV?$allocator@V?$basic_string@DU?$char_traits@D@std@@V?$allocator@D@2@@std@@@1@QEAV?$basic_string@DU?$char_traits@D@std@@V?$allocator@D@2@@1@@Z
	??$destroy@VActions@@@?$_Default_allocator_traits@V?$allocator@VActions@@@std@@@std@@SAXAEAV?$allocator@VActions@@@1@QEAVActions@@@Z
	??$destroy@VKeyValue@@@?$_Default_allocator_traits@V?$allocator@VKeyValue@@@std@@@std@@SAXAEAV?$allocator@VKeyValue@@@1@QEAVKeyValue@@@Z
	??$destroy@VModeType@@@?$_Default_allocator_traits@V?$allocator@VModeType@@@std@@@std@@SAXAEAV?$allocator@VModeType@@@1@QEAVModeType@@@Z
	??$destroy@VdevActions@@@?$_Default_allocator_traits@V?$allocator@VdevActions@@@std@@@std@@SAXAEAV?$allocator@VdevActions@@@1@QEAVdevActions@@@Z
	??$destroy_at@V?$basic_string@DU?$char_traits@D@std@@V?$allocator@D@2@@std@@@std@@YAXQEAV?$basic_string@DU?$char_traits@D@std@@V?$allocator@D@2@@0@@Z
	??$destroy_at@VActions@@@std@@YAXQEAVActions@@@Z
	??$destroy_at@VKeyValue@@@std@@YAXQEAVKeyValue@@@Z
	??$destroy_at@VModeType@@@std@@YAXQEAVModeType@@@Z
	??$destroy_at@VdevActions@@@std@@YAXQEAVdevActions@@@Z
	??$duration_cast@V?$duration@_JU?$ratio@$00$0DLJKMKAA@@std@@@chrono@std@@_JU?$ratio@$00$0DOI@@3@$0A@@chrono@std@@YA?AV?$duration@_JU?$ratio@$00$0DLJKMKAA@@std@@@01@AEBV?$duration@_JU?$ratio@$00$0DOI@@std@@@01@@Z
	??$duration_cast@V?$duration@_JU?$ratio@$00$0DLJKMKAA@@std@@@chrono@std@@_JU?$ratio@$00$0PECEA@@3@$0A@@chrono@std@@YA?AV?$duration@_JU?$ratio@$00$0DLJKMKAA@@std@@@01@AEBV?$duration@_JU?$ratio@$00$0PECEA@@std@@@01@@Z
	??$duration_cast@V?$duration@_JU?$ratio@$00$0DOI@@std@@@chrono@std@@_JU?$ratio@$00$0DLJKMKAA@@3@$0A@@chrono@std@@YA?AV?$duration@_JU?$ratio@$00$0DOI@@std@@@01@AEBV?$duration@_JU?$ratio@$00$0DLJKMKAA@@std@@@01@@Z
	??$end@D$0BF@@std@@YAPEADAEAY0BF@D@Z
	??$endl@DU?$char_traits@D@std@@@std@@YAAEAV?$basic_ostream@DU?$char_traits@D@std@@@0@AEAV10@@Z
	??$exchange@PEAU_Container_proxy@std@@$$T@std@@YAPEAU_Container_proxy@0@AEAPEAU10@$$QEA$$T@Z
	??$exchange@PEAU_Iterator_base12@std@@$$T@std@@YAPEAU_Iterator_base12@0@AEAPEAU10@$$QEA$$T@Z
	??$exchange@PEAVActions@@$$T@std@@YAPEAVActions@@AEAPEAV1@$$QEA$$T@Z
	??$exchange@PEAV_Facet_base@std@@$$T@std@@YAPEAV_Facet_base@0@AEAPEAV10@$$QEA$$T@Z
	??$getline@DU?$char_traits@D@std@@V?$allocator@D@2@@std@@YAAEAV?$basic_istream@DU?$char_traits@D@std@@@0@$$QEAV10@AEAV?$basic_string@DU?$char_traits@D@std@@V?$allocator@D@2@@0@D@Z
	??$getline@DU?$char_traits@D@std@@V?$allocator@D@2@@std@@YAAEAV?$basic_istream@DU?$char_traits@D@std@@@0@AEAV10@AEAV?$basic_string@DU?$char_traits@D@std@@V?$allocator@D@2@@0@@Z
	??$max@PEAD@std@@YAAEBQEADAEBQEAD0@Z
	??$max@_K@std@@YAAEB_KAEB_K0@Z
	??$min@_K@std@@YAAEB_KAEB_K0@Z
	??$sleep_for@_JU?$ratio@$00$0PECEA@@std@@@this_thread@std@@YAXAEBV?$duration@_JU?$ratio@$00$0PECEA@@std@@@chrono@1@@Z
	??$sleep_until@Usteady_clock@chrono@std@@V?$duration@_JU?$ratio@$00$0DLJKMKAA@@std@@@23@@this_thread@std@@YAXAEBV?$time_point@Usteady_clock@chrono@std@@V?$duration@_JU?$ratio@$00$0DLJKMKAA@@std@@@23@@chrono@1@@Z
	??$use_facet@V?$codecvt@DDU_Mbstatet@@@std@@@std@@YAAEBV?$codecvt@DDU_Mbstatet@@@0@AEBVlocale@0@@Z
	??0?$GenericDocument@U?$UTF8@D@rapidjson@@V?$MemoryPoolAllocator@VCrtAllocator@rapidjson@@@2@VCrtAllocator@2@@rapidjson@@QEAA@PEAV?$MemoryPoolAllocator@VCrtAllocator@rapidjson@@@1@_KPEAVCrtAllocator@1@@Z
	??0?$GenericMemberIterator@$00U?$UTF8@D@rapidjson@@V?$MemoryPoolAllocator@VCrtAllocator@rapidjson@@@2@@rapidjson@@AEAA@PEBV?$GenericMember@U?$UTF8@D@rapidjson@@V?$MemoryPoolAllocator@VCrtAllocator@rapidjson@@@2@@1@@Z
	??0?$GenericMemberIterator@$00U?$UTF8@D@rapidjson@@V?$MemoryPoolAllocator@VCrtAllocator@rapidjson@@@2@@rapidjson@@QEAA@AEBV?$GenericMemberIterator@$0A@U?$UTF8@D@rapidjson@@V?$MemoryPoolAllocator@VCrtAllocator@rapidjson@@@2@@1@@Z
	??0?$GenericMemberIterator@$0A@U?$UTF8@D@rapidjson@@V?$MemoryPoolAllocator@VCrtAllocator@rapidjson@@@2@@rapidjson@@AEAA@PEAV?$GenericMember@U?$UTF8@D@rapidjson@@V?$MemoryPoolAllocator@VCrtAllocator@rapidjson@@@2@@1@@Z
	??0?$GenericReader@U?$UTF8@D@rapidjson@@U12@VCrtAllocator@2@@rapidjson@@QEAA@PEAVCrtAllocator@1@_K@Z
	??0?$GenericStringRef@D@rapidjson@@QEAA@AEBU01@@Z
	??0?$GenericStringRef@D@rapidjson@@QEAA@PEBD@Z
	??0?$GenericStringRef@D@rapidjson@@QEAA@PEBDI@Z
	??0?$GenericStringStream@U?$UTF8@D@rapidjson@@@rapidjson@@QEAA@PEBD@Z
	??0?$GenericValue@U?$UTF8@D@rapidjson@@V?$MemoryPoolAllocator@VCrtAllocator@rapidjson@@@2@@rapidjson@@QEAA@H@Z
	??0?$GenericValue@U?$UTF8@D@rapidjson@@V?$MemoryPoolAllocator@VCrtAllocator@rapidjson@@@2@@rapidjson@@QEAA@I@Z
	??0?$GenericValue@U?$UTF8@D@rapidjson@@V?$MemoryPoolAllocator@VCrtAllocator@rapidjson@@@2@@rapidjson@@QEAA@N@Z
	??0?$GenericValue@U?$UTF8@D@rapidjson@@V?$MemoryPoolAllocator@VCrtAllocator@rapidjson@@@2@@rapidjson@@QEAA@PEBDI@Z
	??0?$GenericValue@U?$UTF8@D@rapidjson@@V?$MemoryPoolAllocator@VCrtAllocator@rapidjson@@@2@@rapidjson@@QEAA@PEBDIAEAV?$MemoryPoolAllocator@VCrtAllocator@rapidjson@@@1@@Z
	??0?$GenericValue@U?$UTF8@D@rapidjson@@V?$MemoryPoolAllocator@VCrtAllocator@rapidjson@@@2@@rapidjson@@QEAA@U?$GenericStringRef@D@1@@Z
	??0?$GenericValue@U?$UTF8@D@rapidjson@@V?$MemoryPoolAllocator@VCrtAllocator@rapidjson@@@2@@rapidjson@@QEAA@W4Type@1@@Z
	??0?$GenericValue@U?$UTF8@D@rapidjson@@V?$MemoryPoolAllocator@VCrtAllocator@rapidjson@@@2@@rapidjson@@QEAA@XZ
	??0?$GenericValue@U?$UTF8@D@rapidjson@@V?$MemoryPoolAllocator@VCrtAllocator@rapidjson@@@2@@rapidjson@@QEAA@_J@Z
	??0?$GenericValue@U?$UTF8@D@rapidjson@@V?$MemoryPoolAllocator@VCrtAllocator@rapidjson@@@2@@rapidjson@@QEAA@_K@Z
	??0?$MemoryPoolAllocator@VCrtAllocator@rapidjson@@@rapidjson@@QEAA@_KPEAVCrtAllocator@1@@Z
	??0?$NumberStream@U?$GenericStringStream@U?$UTF8@D@rapidjson@@@rapidjson@@$0A@$0A@@?$GenericReader@U?$UTF8@D@rapidjson@@U12@VCrtAllocator@2@@rapidjson@@QEAA@AEAV12@AEAU?$GenericStringStream@U?$UTF8@D@rapidjson@@@2@@Z
	??0?$Stack@VCrtAllocator@rapidjson@@@internal@rapidjson@@QEAA@PEAVCrtAllocator@2@_K@Z
	??0?$StackStream@D@?$GenericReader@U?$UTF8@D@rapidjson@@U12@VCrtAllocator@2@@rapidjson@@QEAA@AEAV?$Stack@VCrtAllocator@rapidjson@@@internal@2@@Z
	??0?$StreamLocalCopy@U?$GenericStringStream@U?$UTF8@D@rapidjson@@@rapidjson@@$00@internal@rapidjson@@QEAA@AEAU?$GenericStringStream@U?$UTF8@D@rapidjson@@@2@@Z
	??0?$_Container_proxy_ptr12@V?$allocator@U_Container_proxy@std@@@std@@@std@@QEAA@AEAV?$allocator@U_Container_proxy@std@@@1@AEAU_Container_base12@1@@Z
	??0?$_String_const_iterator@V?$_String_val@U?$_Simple_types@D@std@@@std@@@std@@QEAA@AEBV01@@Z
	??0?$_String_const_iterator@V?$_String_val@U?$_Simple_types@D@std@@@std@@@std@@QEAA@PEBDPEBU_Container_base12@1@@Z
	??0?$_String_iterator@V?$_String_val@U?$_Simple_types@D@std@@@std@@@std@@QEAA@AEBV01@@Z
	??0?$_String_iterator@V?$_String_val@U?$_Simple_types@D@std@@@std@@@std@@QEAA@PEBDPEBU_Container_base12@1@@Z
	??0?$_String_val@U?$_Simple_types@D@std@@@std@@QEAA@XZ
	??0?$_Uninitialized_backout_al@V?$allocator@V?$basic_string@DU?$char_traits@D@std@@V?$allocator@D@2@@std@@@std@@@std@@QEAA@PEAV?$basic_string@DU?$char_traits@D@std@@V?$allocator@D@2@@1@AEAV?$allocator@V?$basic_string@DU?$char_traits@D@std@@V?$allocator@D@2@@std@@@1@@Z
	??0?$_Uninitialized_backout_al@V?$allocator@VActions@@@std@@@std@@QEAA@PEAVActions@@AEAV?$allocator@VActions@@@1@@Z
	??0?$_Uninitialized_backout_al@V?$allocator@VKeyValue@@@std@@@std@@QEAA@PEAVKeyValue@@AEAV?$allocator@VKeyValue@@@1@@Z
	??0?$_Uninitialized_backout_al@V?$allocator@VModeType@@@std@@@std@@QEAA@PEAVModeType@@AEAV?$allocator@VModeType@@@1@@Z
	??0?$_Uninitialized_backout_al@V?$allocator@VdevActions@@@std@@@std@@QEAA@PEAVdevActions@@AEAV?$allocator@VdevActions@@@1@@Z
	??0?$_Vector_const_iterator@V?$_Vector_val@U?$_Simple_types@V?$basic_string@DU?$char_traits@D@std@@V?$allocator@D@2@@std@@@std@@@std@@@std@@QEAA@AEBV01@@Z
	??0?$_Vector_const_iterator@V?$_Vector_val@U?$_Simple_types@V?$basic_string@DU?$char_traits@D@std@@V?$allocator@D@2@@std@@@std@@@std@@@std@@QEAA@PEAV?$basic_string@DU?$char_traits@D@std@@V?$allocator@D@2@@1@PEBU_Container_base12@1@@Z
	??0?$_Vector_iterator@V?$_Vector_val@U?$_Simple_types@V?$basic_string@DU?$char_traits@D@std@@V?$allocator@D@2@@std@@@std@@@std@@@std@@QEAA@AEBV01@@Z
	??0?$_Vector_iterator@V?$_Vector_val@U?$_Simple_types@V?$basic_string@DU?$char_traits@D@std@@V?$allocator@D@2@@std@@@std@@@std@@@std@@QEAA@PEAV?$basic_string@DU?$char_traits@D@std@@V?$allocator@D@2@@1@PEBU_Container_base12@1@@Z
	??0?$_Vector_val@U?$_Simple_types@V?$basic_string@DU?$char_traits@D@std@@V?$allocator@D@2@@std@@@std@@@std@@QEAA@XZ
	??0?$_Vector_val@U?$_Simple_types@VActions@@@std@@@std@@QEAA@PEAVActions@@00@Z
	??0?$_Vector_val@U?$_Simple_types@VActions@@@std@@@std@@QEAA@XZ
	??0?$_Vector_val@U?$_Simple_types@VKeyValue@@@std@@@std@@QEAA@XZ
	??0?$_Vector_val@U?$_Simple_types@VdevActions@@@std@@@std@@QEAA@XZ
	??0?$allocator@D@std@@QEAA@XZ
	??0?$allocator@V?$basic_string@DU?$char_traits@D@std@@V?$allocator@D@2@@std@@@std@@QEAA@XZ
	??0?$allocator@VActions@@@std@@QEAA@XZ
	??0?$allocator@VKeyValue@@@std@@QEAA@XZ
	??0?$allocator@VdevActions@@@std@@QEAA@XZ
	??0?$atomic@_N@std@@QEAA@XZ
	??0?$basic_filebuf@DU?$char_traits@D@std@@@std@@QEAA@XZ
	??0?$basic_ifstream@DU?$char_traits@D@std@@@std@@QEAA@AEBV?$basic_string@DU?$char_traits@D@std@@V?$allocator@D@2@@1@HH@Z
	??0?$basic_ifstream@DU?$char_traits@D@std@@@std@@QEAA@PEBDHH@Z
	??0?$basic_string@DU?$char_traits@D@std@@V?$allocator@D@2@@std@@QEAA@$$QEAV01@@Z
	??0?$basic_string@DU?$char_traits@D@std@@V?$allocator@D@2@@std@@QEAA@AEBV01@@Z
	??0?$basic_string@DU?$char_traits@D@std@@V?$allocator@D@2@@std@@QEAA@AEBV01@_K1AEBV?$allocator@D@1@@Z
	??0?$basic_string@DU?$char_traits@D@std@@V?$allocator@D@2@@std@@QEAA@AEBV?$allocator@D@1@@Z
	??0?$basic_string@DU?$char_traits@D@std@@V?$allocator@D@2@@std@@QEAA@QEBD@Z
	??0?$basic_string@DU?$char_traits@D@std@@V?$allocator@D@2@@std@@QEAA@XZ
	??0?$basic_stringbuf@DU?$char_traits@D@std@@V?$allocator@D@2@@std@@QEAA@H@Z
	??0?$basic_stringstream@DU?$char_traits@D@std@@V?$allocator@D@2@@std@@QEAA@XZ
	??0?$fpos@U_Mbstatet@@@std@@QEAA@U_Mbstatet@@_J@Z
	??0?$fpos@U_Mbstatet@@@std@@QEAA@_J@Z
	??0?$time_point@Usteady_clock@chrono@std@@V?$duration@_JU?$ratio@$00$0DLJKMKAA@@std@@@23@@chrono@std@@QEAA@AEBV?$duration@_JU?$ratio@$00$0DLJKMKAA@@std@@@12@@Z
	??0?$vector@V?$basic_string@DU?$char_traits@D@std@@V?$allocator@D@2@@std@@V?$allocator@V?$basic_string@DU?$char_traits@D@std@@V?$allocator@D@2@@std@@@2@@std@@QEAA@AEBV01@@Z
	??0?$vector@V?$basic_string@DU?$char_traits@D@std@@V?$allocator@D@2@@std@@V?$allocator@V?$basic_string@DU?$char_traits@D@std@@V?$allocator@D@2@@std@@@2@@std@@QEAA@XZ
	??0?$vector@VActions@@V?$allocator@VActions@@@std@@@std@@QEAA@$$QEAV01@@Z
	??0?$vector@VActions@@V?$allocator@VActions@@@std@@@std@@QEAA@AEBV01@@Z
	??0?$vector@VActions@@V?$allocator@VActions@@@std@@@std@@QEAA@XZ
	??0?$vector@VKeyValue@@V?$allocator@VKeyValue@@@std@@@std@@QEAA@XZ
	??0?$vector@VdevActions@@V?$allocator@VdevActions@@@std@@@std@@QEAA@AEBV01@@Z
	??0?$vector@VdevActions@@V?$allocator@VdevActions@@@std@@@std@@QEAA@XZ
	??0Actions@@QEAA@AEBV0@@Z
	??0Actions@@QEAA@XZ
	??0BigInteger@internal@rapidjson@@QEAA@AEBV012@@Z
	??0BigInteger@internal@rapidjson@@QEAA@PEBD_K@Z
	??0BigInteger@internal@rapidjson@@QEAA@_K@Z
	??0ClearStackOnExit@?$GenericDocument@U?$UTF8@D@rapidjson@@V?$MemoryPoolAllocator@VCrtAllocator@rapidjson@@@2@VCrtAllocator@2@@rapidjson@@QEAA@AEAV12@@Z
	??0ClearStackOnExit@?$GenericReader@U?$UTF8@D@rapidjson@@U12@VCrtAllocator@2@@rapidjson@@QEAA@AEAV12@@Z
	??0DiyFp@internal@rapidjson@@QEAA@_KH@Z
	??0Double@internal@rapidjson@@QEAA@N@Z
	??0Double@internal@rapidjson@@QEAA@_K@Z
	??0Executable@@QEAA@XZ
	??0KeyValue@@QEAA@$$QEAV0@@Z
	??0KeyValue@@QEAA@AEBV0@@Z
	??0KeyValue@@QEAA@XZ
	??0ModeType@@QEAA@$$QEAV0@@Z
	??0ModeType@@QEAA@AEBV0@@Z
	??0ModeType@@QEAA@XZ
	??0ParseResult@rapidjson@@QEAA@XZ
	??0_Basic_container_proxy_ptr12@std@@IEAA@XZ
	??0_Bxty@?$_String_val@U?$_Simple_types@D@std@@@std@@QEAA@XZ
	??0_Container_base12@std@@QEAA@XZ
	??0_Container_proxy@std@@QEAA@PEAU_Container_base12@1@@Z
	??0_Iterator_base12@std@@QEAA@AEBU01@@Z
	??0_Iterator_base12@std@@QEAA@XZ
	??0_Sentry_base@?$basic_istream@DU?$char_traits@D@std@@@std@@QEAA@AEAV12@@Z
	??0_Sentry_base@?$basic_ostream@DU?$char_traits@D@std@@@std@@QEAA@AEAV12@@Z
	??0bad_alloc@std@@AEAA@QEBD@Z
	??0bad_alloc@std@@QEAA@AEBV01@@Z
	??0bad_array_new_length@std@@QEAA@AEBV01@@Z
	??0bad_array_new_length@std@@QEAA@XZ
	??0bad_cast@std@@QEAA@AEBV01@@Z
	??0bad_cast@std@@QEAA@XZ
	??0devActions@@QEAA@$$QEAV0@@Z
	??0devActions@@QEAA@AEBV0@@Z
	??0devActions@@QEAA@XZ
	??0exception@std@@QEAA@AEBV01@@Z
	??0exception@std@@QEAA@QEBDH@Z
	??0joystickActions@@QEAA@XZ
	??0jsonParser@@QEAA@V?$basic_string@DU?$char_traits@D@std@@V?$allocator@D@2@@std@@PEAV?$vector@VModeType@@V?$allocator@VModeType@@@std@@@2@PEAV?$vector@VActions@@V?$allocator@VActions@@@std@@@2@@Z
	??0keyParser@@QEAA@PEBDD@Z
	??0keyboardActions@@QEAA@AEBV0@@Z
	??0keyboardActions@@QEAA@XZ
	??0midiActions@@QEAA@XZ
	??0mouseActions@@QEAA@XZ
	??0oActions@@QEAA@XZ
	??0sentry@?$basic_istream@DU?$char_traits@D@std@@@std@@QEAA@AEAV12@_N@Z
	??0sentry@?$basic_ostream@DU?$char_traits@D@std@@@std@@QEAA@AEAV12@@Z
	??1?$GenericDocument@U?$UTF8@D@rapidjson@@V?$MemoryPoolAllocator@VCrtAllocator@rapidjson@@@2@VCrtAllocator@2@@rapidjson@@QEAA@XZ
	??1?$GenericMember@U?$UTF8@D@rapidjson@@V?$MemoryPoolAllocator@VCrtAllocator@rapidjson@@@2@@rapidjson@@QEAA@XZ
	??1?$GenericReader@U?$UTF8@D@rapidjson@@U12@VCrtAllocator@2@@rapidjson@@QEAA@XZ
	??1?$GenericValue@U?$UTF8@D@rapidjson@@V?$MemoryPoolAllocator@VCrtAllocator@rapidjson@@@2@@rapidjson@@QEAA@XZ
	??1?$MemoryPoolAllocator@VCrtAllocator@rapidjson@@@rapidjson@@QEAA@XZ
	??1?$Stack@VCrtAllocator@rapidjson@@@internal@rapidjson@@QEAA@XZ
	??1?$StreamLocalCopy@U?$GenericStringStream@U?$UTF8@D@rapidjson@@@rapidjson@@$00@internal@rapidjson@@QEAA@XZ
	??1?$_Compressed_pair@V?$allocator@D@std@@V?$_String_val@U?$_Simple_types@D@std@@@2@$00@std@@QEAA@XZ
	??1?$_Container_proxy_ptr12@V?$allocator@U_Container_proxy@std@@@std@@@std@@QEAA@XZ
	??1?$_String_const_iterator@V?$_String_val@U?$_Simple_types@D@std@@@std@@@std@@QEAA@XZ
	??1?$_String_iterator@V?$_String_val@U?$_Simple_types@D@std@@@std@@@std@@QEAA@XZ
	??1?$_String_val@U?$_Simple_types@D@std@@@std@@QEAA@XZ
	??1?$_Tidy_guard@V?$vector@V?$basic_string@DU?$char_traits@D@std@@V?$allocator@D@2@@std@@V?$allocator@V?$basic_string@DU?$char_traits@D@std@@V?$allocator@D@2@@std@@@2@@std@@@std@@QEAA@XZ
	??1?$_Tidy_guard@V?$vector@VActions@@V?$allocator@VActions@@@std@@@std@@@std@@QEAA@XZ
	??1?$_Tidy_guard@V?$vector@VdevActions@@V?$allocator@VdevActions@@@std@@@std@@@std@@QEAA@XZ
	??1?$_Uninitialized_backout_al@V?$allocator@V?$basic_string@DU?$char_traits@D@std@@V?$allocator@D@2@@std@@@std@@@std@@QEAA@XZ
	??1?$_Uninitialized_backout_al@V?$allocator@VActions@@@std@@@std@@QEAA@XZ
	??1?$_Uninitialized_backout_al@V?$allocator@VKeyValue@@@std@@@std@@QEAA@XZ
	??1?$_Uninitialized_backout_al@V?$allocator@VModeType@@@std@@@std@@QEAA@XZ
	??1?$_Uninitialized_backout_al@V?$allocator@VdevActions@@@std@@@std@@QEAA@XZ
	??1?$_Vector_const_iterator@V?$_Vector_val@U?$_Simple_types@V?$basic_string@DU?$char_traits@D@std@@V?$allocator@D@2@@std@@@std@@@std@@@std@@QEAA@XZ
	??1?$_Vector_iterator@V?$_Vector_val@U?$_Simple_types@V?$basic_string@DU?$char_traits@D@std@@V?$allocator@D@2@@std@@@std@@@std@@@std@@QEAA@XZ
	??1?$basic_filebuf@DU?$char_traits@D@std@@@std@@UEAA@XZ
	??1?$basic_ifstream@DU?$char_traits@D@std@@@std@@UEAA@XZ
	??1?$basic_string@DU?$char_traits@D@std@@V?$allocator@D@2@@std@@QEAA@XZ
	??1?$basic_stringbuf@DU?$char_traits@D@std@@V?$allocator@D@2@@std@@UEAA@XZ
	??1?$basic_stringstream@DU?$char_traits@D@std@@V?$allocator@D@2@@std@@UEAA@XZ
	??1?$unique_ptr@V_Facet_base@std@@U?$default_delete@V_Facet_base@std@@@2@@std@@QEAA@XZ
	??1?$vector@V?$basic_string@DU?$char_traits@D@std@@V?$allocator@D@2@@std@@V?$allocator@V?$basic_string@DU?$char_traits@D@std@@V?$allocator@D@2@@std@@@2@@std@@QEAA@XZ
	??1?$vector@VActions@@V?$allocator@VActions@@@std@@@std@@QEAA@XZ
	??1?$vector@VKeyValue@@V?$allocator@VKeyValue@@@std@@@std@@QEAA@XZ
	??1?$vector@VdevActions@@V?$allocator@VdevActions@@@std@@@std@@QEAA@XZ
	??1Actions@@QEAA@XZ
	??1ClearStackOnExit@?$GenericDocument@U?$UTF8@D@rapidjson@@V?$MemoryPoolAllocator@VCrtAllocator@rapidjson@@@2@VCrtAllocator@2@@rapidjson@@QEAA@XZ
	??1ClearStackOnExit@?$GenericReader@U?$UTF8@D@rapidjson@@U12@VCrtAllocator@2@@rapidjson@@QEAA@XZ
	??1Executable@@QEAA@XZ
	??1KeyValue@@QEAA@XZ
	??1ModeType@@QEAA@XZ
	??1_Bxty@?$_String_val@U?$_Simple_types@D@std@@@std@@QEAA@XZ
	??1_Iterator_base12@std@@QEAA@XZ
	??1_Sentry_base@?$basic_istream@DU?$char_traits@D@std@@@std@@QEAA@XZ
	??1_Sentry_base@?$basic_ostream@DU?$char_traits@D@std@@@std@@QEAA@XZ
	??1bad_alloc@std@@UEAA@XZ
	??1bad_array_new_length@std@@UEAA@XZ
	??1bad_cast@std@@UEAA@XZ
	??1devActions@@QEAA@XZ
	??1exception@std@@UEAA@XZ
	??1joystickActions@@QEAA@XZ
	??1jsonParser@@QEAA@XZ
	??1keyboardActions@@QEAA@XZ
	??1locale@std@@QEAA@XZ
	??1midiActions@@QEAA@XZ
	??1mouseActions@@QEAA@XZ
	??1sentry@?$basic_istream@DU?$char_traits@D@std@@@std@@QEAA@XZ
	??1sentry@?$basic_ostream@DU?$char_traits@D@std@@@std@@QEAA@XZ
	??2@YAPEAX_KPEAX@Z
	??4?$GenericValue@U?$UTF8@D@rapidjson@@V?$MemoryPoolAllocator@VCrtAllocator@rapidjson@@@2@@rapidjson@@QEAAAEAV01@AEAV01@@Z
	??4?$basic_string@DU?$char_traits@D@std@@V?$allocator@D@2@@std@@QEAAAEAV01@$$QEAV01@@Z
	??4?$basic_string@DU?$char_traits@D@std@@V?$allocator@D@2@@std@@QEAAAEAV01@AEBV01@@Z
	??4?$basic_string@DU?$char_traits@D@std@@V?$allocator@D@2@@std@@QEAAAEAV01@QEBD@Z
	??4BigInteger@internal@rapidjson@@QEAAAEAV012@_K@Z
	??4_Iterator_base12@std@@QEAAAEAU01@AEBU01@@Z
	??4devActions@@QEAAAEAV0@$$QEAV0@@Z
	??4keyboardActions@@QEAAAEAV0@AEBV0@@Z
	??8?$_String_const_iterator@V?$_String_val@U?$_Simple_types@D@std@@@std@@@std@@QEBA_NAEBV01@@Z
	??8?$_Vector_const_iterator@V?$_Vector_val@U?$_Simple_types@V?$basic_string@DU?$char_traits@D@std@@V?$allocator@D@2@@std@@@std@@@std@@@std@@QEBA_NAEBV01@@Z
	??8BigInteger@internal@rapidjson@@QEBA_N_K@Z
	??A?$GenericValue@U?$UTF8@D@rapidjson@@V?$MemoryPoolAllocator@VCrtAllocator@rapidjson@@@2@@rapidjson@@QEAAAEAV01@I@Z
	??B?$GenericDocument@U?$UTF8@D@rapidjson@@V?$MemoryPoolAllocator@VCrtAllocator@rapidjson@@@2@VCrtAllocator@2@@rapidjson@@QEBA?AUParseResult@1@XZ
	??B?$GenericStringRef@D@rapidjson@@QEBAPEBDXZ
	??B?$fpos@U_Mbstatet@@@std@@QEBA_JXZ
	??BParseResult@rapidjson@@QEBAP801@EBA_NXZXZ
	??Bsentry@?$basic_istream@DU?$char_traits@D@std@@@std@@QEBA_NXZ
	??Bsentry@?$basic_ostream@DU?$char_traits@D@std@@@std@@QEBA_NXZ
	??C?$GenericMemberIterator@$00U?$UTF8@D@rapidjson@@V?$MemoryPoolAllocator@VCrtAllocator@rapidjson@@@2@@rapidjson@@QEBAPEBV?$GenericMember@U?$UTF8@D@rapidjson@@V?$MemoryPoolAllocator@VCrtAllocator@rapidjson@@@2@@1@XZ
	??C?$GenericMemberIterator@$0A@U?$UTF8@D@rapidjson@@V?$MemoryPoolAllocator@VCrtAllocator@rapidjson@@@2@@rapidjson@@QEBAPEAV?$GenericMember@U?$UTF8@D@rapidjson@@V?$MemoryPoolAllocator@VCrtAllocator@rapidjson@@@2@@1@XZ
	??C?$_Vector_iterator@V?$_Vector_val@U?$_Simple_types@V?$basic_string@DU?$char_traits@D@std@@V?$allocator@D@2@@std@@@std@@@std@@@std@@QEBAPEAV?$basic_string@DU?$char_traits@D@std@@V?$allocator@D@2@@1@XZ
	??D?$_String_const_iterator@V?$_String_val@U?$_Simple_types@D@std@@@std@@@std@@QEBAAEBDXZ
	??D?$_String_iterator@V?$_String_val@U?$_Simple_types@D@std@@@std@@@std@@QEBAAEADXZ
	??D?$_Vector_const_iterator@V?$_Vector_val@U?$_Simple_types@V?$basic_string@DU?$char_traits@D@std@@V?$allocator@D@2@@std@@@std@@@std@@@std@@QEBAAEBV?$basic_string@DU?$char_traits@D@std@@V?$allocator@D@2@@1@XZ
	??D?$_Vector_iterator@V?$_Vector_val@U?$_Simple_types@V?$basic_string@DU?$char_traits@D@std@@V?$allocator@D@2@@std@@@std@@@std@@@std@@QEBAAEAV?$basic_string@DU?$char_traits@D@std@@V?$allocator@D@2@@1@XZ
	??DDiyFp@internal@rapidjson@@QEBA?AU012@AEBU012@@Z
	??E?$GenericMemberIterator@$00U?$UTF8@D@rapidjson@@V?$MemoryPoolAllocator@VCrtAllocator@rapidjson@@@2@@rapidjson@@QEAAAEAV01@XZ
	??E?$GenericMemberIterator@$0A@U?$UTF8@D@rapidjson@@V?$MemoryPoolAllocator@VCrtAllocator@rapidjson@@@2@@rapidjson@@QEAAAEAV01@XZ
	??E?$_String_const_iterator@V?$_String_val@U?$_Simple_types@D@std@@@std@@@std@@QEAAAEAV01@XZ
	??E?$_String_iterator@V?$_String_val@U?$_Simple_types@D@std@@@std@@@std@@QEAA?AV01@H@Z
	??E?$_Vector_const_iterator@V?$_Vector_val@U?$_Simple_types@V?$basic_string@DU?$char_traits@D@std@@V?$allocator@D@2@@std@@@std@@@std@@@std@@QEAAAEAV01@XZ
	??E?$_Vector_iterator@V?$_Vector_val@U?$_Simple_types@V?$basic_string@DU?$char_traits@D@std@@V?$allocator@D@2@@std@@@std@@@std@@@std@@QEAA?AV01@H@Z
	??Mstd@@YA_NUstrong_ordering@0@U_Literal_zero@0@@Z
	??Nstd@@YA_NUstrong_ordering@0@U_Literal_zero@0@@Z
	??Ostd@@YA_NUstrong_ordering@0@U_Literal_zero@0@@Z
	??Pstd@@YA_NUstrong_ordering@0@U_Literal_zero@0@@Z
	??R<lambda_1>@?1??assign@?$basic_string@DU?$char_traits@D@std@@V?$allocator@D@2@@std@@QEAAAEAV23@QEBD_K@Z@QEBA@QEAD10@Z
	??R<lambda_1>@?1??push_back@?$basic_string@DU?$char_traits@D@std@@V?$allocator@D@2@@std@@QEAAXD@Z@QEBA@QEADQEBD_KD@Z
	??R<lambda_1>@?1??replace@?$basic_string@DU?$char_traits@D@std@@V?$allocator@D@2@@std@@QEAAAEAV23@_K_KQEBD0@Z@QEBA@QEAD200020@Z
	??R?$default_delete@V_Facet_base@std@@@std@@QEBAXPEAV_Facet_base@1@@Z
	??XBigInteger@internal@rapidjson@@QEAAAEAV012@I@Z
	??XBigInteger@internal@rapidjson@@QEAAAEAV012@_K@Z
	??Y?$basic_string@DU?$char_traits@D@std@@V?$allocator@D@2@@std@@QEAAAEAV01@D@Z
	??Y?$duration@_JU?$ratio@$00$0DLJKMKAA@@std@@@chrono@std@@QEAAAEAV012@AEBV012@@Z
	??Y?$time_point@Usteady_clock@chrono@std@@V?$duration@_JU?$ratio@$00$0DLJKMKAA@@std@@@23@@chrono@std@@QEAAAEAV012@AEBV?$duration@_JU?$ratio@$00$0DLJKMKAA@@std@@@12@@Z
	??YBigInteger@internal@rapidjson@@QEAAAEAV012@_K@Z
	??_3BigInteger@internal@rapidjson@@QEAAAEAV012@_K@Z
	??_7?$basic_filebuf@DU?$char_traits@D@std@@@std@@6B@
	??_7?$basic_ifstream@DU?$char_traits@D@std@@@std@@6B@
	??_7?$basic_stringbuf@DU?$char_traits@D@std@@V?$allocator@D@2@@std@@6B@
	??_7?$basic_stringstream@DU?$char_traits@D@std@@V?$allocator@D@2@@std@@6B@
	??_7bad_alloc@std@@6B@
	??_7bad_array_new_length@std@@6B@
	??_7bad_cast@std@@6B@
	??_7exception@std@@6B@
	??_7oActions@@6B@
	??_D?$basic_ifstream@DU?$char_traits@D@std@@@std@@QEAAXXZ
	??_D?$basic_stringstream@DU?$char_traits@D@std@@V?$allocator@D@2@@std@@QEAAXXZ
	?AddChunk@?$MemoryPoolAllocator@VCrtAllocator@rapidjson@@@rapidjson@@AEAA_N_K@Z
	?AppendDecimal64@BigInteger@internal@rapidjson@@AEAAXPEBD0@Z
	?Bool@?$GenericDocument@U?$UTF8@D@rapidjson@@V?$MemoryPoolAllocator@VCrtAllocator@rapidjson@@@2@VCrtAllocator@2@@rapidjson@@QEAA_N_N@Z
	?CheckWithinHalfULP@internal@rapidjson@@YAHNAEBVBigInteger@12@H@Z
	?Clear@?$MemoryPoolAllocator@VCrtAllocator@rapidjson@@@rapidjson@@QEAAXXZ
	?Clear@?$Stack@VCrtAllocator@rapidjson@@@internal@rapidjson@@QEAAXXZ
	?Clear@ParseResult@rapidjson@@QEAAXXZ
	?ClearStack@?$GenericDocument@U?$UTF8@D@rapidjson@@V?$MemoryPoolAllocator@VCrtAllocator@rapidjson@@@2@VCrtAllocator@2@@rapidjson@@AEAAXXZ
	?ClearStack@?$GenericReader@U?$UTF8@D@rapidjson@@U12@VCrtAllocator@2@@rapidjson@@AEAAXXZ
	?Compare@BigInteger@internal@rapidjson@@QEBAHAEBV123@@Z
	?Destroy@?$GenericDocument@U?$UTF8@D@rapidjson@@V?$MemoryPoolAllocator@VCrtAllocator@rapidjson@@@2@VCrtAllocator@2@@rapidjson@@AEAAXXZ
	?Destroy@?$Stack@VCrtAllocator@rapidjson@@@internal@rapidjson@@AEAAXXZ
	?Difference@BigInteger@internal@rapidjson@@QEBA_NAEBV123@PEAV123@@Z
	?Double@?$GenericDocument@U?$UTF8@D@rapidjson@@V?$MemoryPoolAllocator@VCrtAllocator@rapidjson@@@2@VCrtAllocator@2@@rapidjson@@QEAA_NN@Z
	?EffectiveSignificandSize@Double@internal@rapidjson@@SAHH@Z
	?Empty@?$Stack@VCrtAllocator@rapidjson@@@internal@rapidjson@@QEBA_NXZ
	?EndArray@?$GenericDocument@U?$UTF8@D@rapidjson@@V?$MemoryPoolAllocator@VCrtAllocator@rapidjson@@@2@VCrtAllocator@2@@rapidjson@@QEAA_NI@Z
	?EndObject@?$GenericDocument@U?$UTF8@D@rapidjson@@V?$MemoryPoolAllocator@VCrtAllocator@rapidjson@@@2@VCrtAllocator@2@@rapidjson@@QEAA_NI@Z
	?Exponent@Double@internal@rapidjson@@QEBAHXZ
	?FastPath@internal@rapidjson@@YANNH@Z
	?FindMember@?$GenericValue@U?$UTF8@D@rapidjson@@V?$MemoryPoolAllocator@VCrtAllocator@rapidjson@@@2@@rapidjson@@QEAA?AV?$GenericMemberIterator@$0A@U?$UTF8@D@rapidjson@@V?$MemoryPoolAllocator@VCrtAllocator@rapidjson@@@2@@2@PEBD@Z
	?FindMember@?$GenericValue@U?$UTF8@D@rapidjson@@V?$MemoryPoolAllocator@VCrtAllocator@rapidjson@@@2@@rapidjson@@QEBA?AV?$GenericMemberIterator@$00U?$UTF8@D@rapidjson@@V?$MemoryPoolAllocator@VCrtAllocator@rapidjson@@@2@@2@PEBD@Z
	?Free@?$MemoryPoolAllocator@VCrtAllocator@rapidjson@@@rapidjson@@SAXPEAX@Z
	?Free@CrtAllocator@rapidjson@@SAXPEAX@Z
	?GetAllocator@?$GenericDocument@U?$UTF8@D@rapidjson@@V?$MemoryPoolAllocator@VCrtAllocator@rapidjson@@@2@VCrtAllocator@2@@rapidjson@@QEAAAEAV?$MemoryPoolAllocator@VCrtAllocator@rapidjson@@@2@XZ
	?GetAllocator@?$Stack@VCrtAllocator@rapidjson@@@internal@rapidjson@@QEAAAEAVCrtAllocator@3@XZ
	?GetBool@?$GenericValue@U?$UTF8@D@rapidjson@@V?$MemoryPoolAllocator@VCrtAllocator@rapidjson@@@2@@rapidjson@@QEBA_NXZ
	?GetCachedPower10@internal@rapidjson@@YA?AUDiyFp@12@HPEAH@Z
	?GetCachedPowerByIndex@internal@rapidjson@@YA?AUDiyFp@12@_K@Z
	?GetCapacity@?$Stack@VCrtAllocator@rapidjson@@@internal@rapidjson@@QEBA_KXZ
	?GetDevType@jsonParser@@AEAA?AW4devType@@V?$basic_string@DU?$char_traits@D@std@@V?$allocator@D@2@@std@@@Z
	?GetElementsPointer@?$GenericValue@U?$UTF8@D@rapidjson@@V?$MemoryPoolAllocator@VCrtAllocator@rapidjson@@@2@@rapidjson@@AEBAPEAV12@XZ
	?GetInt@?$GenericValue@U?$UTF8@D@rapidjson@@V?$MemoryPoolAllocator@VCrtAllocator@rapidjson@@@2@@rapidjson@@QEBAHXZ
	?GetLength@ShortString@?$GenericValue@U?$UTF8@D@rapidjson@@V?$MemoryPoolAllocator@VCrtAllocator@rapidjson@@@2@@rapidjson@@QEBAIXZ
	?GetMembersPointer@?$GenericValue@U?$UTF8@D@rapidjson@@V?$MemoryPoolAllocator@VCrtAllocator@rapidjson@@@2@@rapidjson@@AEBAPEAV?$GenericMember@U?$UTF8@D@rapidjson@@V?$MemoryPoolAllocator@VCrtAllocator@rapidjson@@@2@@2@XZ
	?GetRange@?$UTF8@D@rapidjson@@SAEE@Z
	?GetSize@?$Stack@VCrtAllocator@rapidjson@@@internal@rapidjson@@QEBA_KXZ
	?GetString@?$GenericValue@U?$UTF8@D@rapidjson@@V?$MemoryPoolAllocator@VCrtAllocator@rapidjson@@@2@@rapidjson@@QEBAPEBDXZ
	?GetStringLength@?$GenericValue@U?$UTF8@D@rapidjson@@V?$MemoryPoolAllocator@VCrtAllocator@rapidjson@@@2@@rapidjson@@QEBAIXZ
	?GetStringPointer@?$GenericValue@U?$UTF8@D@rapidjson@@V?$MemoryPoolAllocator@VCrtAllocator@rapidjson@@@2@@rapidjson@@AEBAPEBDXZ
	?HasAllocator@?$Stack@VCrtAllocator@rapidjson@@@internal@rapidjson@@QEBA_NXZ
	?HasMember@?$GenericValue@U?$UTF8@D@rapidjson@@V?$MemoryPoolAllocator@VCrtAllocator@rapidjson@@@2@@rapidjson@@QEBA_NPEBD@Z
	?HasParseError@?$GenericReader@U?$UTF8@D@rapidjson@@U12@VCrtAllocator@2@@rapidjson@@QEBA_NXZ
	?Initializer@jsonParser@@AEAA_NXZ
	?Int64@?$GenericDocument@U?$UTF8@D@rapidjson@@V?$MemoryPoolAllocator@VCrtAllocator@rapidjson@@@2@VCrtAllocator@2@@rapidjson@@QEAA_N_J@Z
	?Int@?$GenericDocument@U?$UTF8@D@rapidjson@@V?$MemoryPoolAllocator@VCrtAllocator@rapidjson@@@2@VCrtAllocator@2@@rapidjson@@QEAA_NH@Z
	?IntegerExponent@Double@internal@rapidjson@@QEBAHXZ
	?IntegerSignificand@Double@internal@rapidjson@@QEBA_KXZ
	?IsArray@?$GenericValue@U?$UTF8@D@rapidjson@@V?$MemoryPoolAllocator@VCrtAllocator@rapidjson@@@2@@rapidjson@@QEBA_NXZ
	?IsBool@?$GenericValue@U?$UTF8@D@rapidjson@@V?$MemoryPoolAllocator@VCrtAllocator@rapidjson@@@2@@rapidjson@@QEBA_NXZ
	?IsError@ParseResult@rapidjson@@QEBA_NXZ
	?IsInt@?$GenericValue@U?$UTF8@D@rapidjson@@V?$MemoryPoolAllocator@VCrtAllocator@rapidjson@@@2@@rapidjson@@QEBA_NXZ
	?IsNormal@Double@internal@rapidjson@@QEBA_NXZ
	?IsObject@?$GenericValue@U?$UTF8@D@rapidjson@@V?$MemoryPoolAllocator@VCrtAllocator@rapidjson@@@2@@rapidjson@@QEBA_NXZ
	?IsString@?$GenericValue@U?$UTF8@D@rapidjson@@V?$MemoryPoolAllocator@VCrtAllocator@rapidjson@@@2@@rapidjson@@QEBA_NXZ
	?IsZero@BigInteger@internal@rapidjson@@QEBA_NXZ
	?Key@?$GenericDocument@U?$UTF8@D@rapidjson@@V?$MemoryPoolAllocator@VCrtAllocator@rapidjson@@@2@VCrtAllocator@2@@rapidjson@@QEAA_NPEBDI_N@Z
	?Length@?$NumberStream@U?$GenericStringStream@U?$UTF8@D@rapidjson@@@rapidjson@@$0A@$0A@@?$GenericReader@U?$UTF8@D@rapidjson@@U12@VCrtAllocator@2@@rapidjson@@QEAA_KXZ
	?Length@?$StackStream@D@?$GenericReader@U?$UTF8@D@rapidjson@@U12@VCrtAllocator@2@@rapidjson@@QEBA_KXZ
	?Malloc@?$MemoryPoolAllocator@VCrtAllocator@rapidjson@@@rapidjson@@QEAAPEAX_K@Z
	?Malloc@CrtAllocator@rapidjson@@QEAAPEAX_K@Z
	?MemberBegin@?$GenericValue@U?$UTF8@D@rapidjson@@V?$MemoryPoolAllocator@VCrtAllocator@rapidjson@@@2@@rapidjson@@QEAA?AV?$GenericMemberIterator@$0A@U?$UTF8@D@rapidjson@@V?$MemoryPoolAllocator@VCrtAllocator@rapidjson@@@2@@2@XZ
	?MemberEnd@?$GenericValue@U?$UTF8@D@rapidjson@@V?$MemoryPoolAllocator@VCrtAllocator@rapidjson@@@2@@rapidjson@@QEAA?AV?$GenericMemberIterator@$0A@U?$UTF8@D@rapidjson@@V?$MemoryPoolAllocator@VCrtAllocator@rapidjson@@@2@@2@XZ
	?MemberEnd@?$GenericValue@U?$UTF8@D@rapidjson@@V?$MemoryPoolAllocator@VCrtAllocator@rapidjson@@@2@@rapidjson@@QEBA?AV?$GenericMemberIterator@$00U?$UTF8@D@rapidjson@@V?$MemoryPoolAllocator@VCrtAllocator@rapidjson@@@2@@2@XZ
	?MulAdd64@BigInteger@internal@rapidjson@@CA_K_K00PEA_K@Z
	?MultiplyPow5@BigInteger@internal@rapidjson@@QEAAAEAV123@I@Z
	?NextPositiveDouble@Double@internal@rapidjson@@QEBANXZ
	?Normalize@DiyFp@internal@rapidjson@@QEBA?AU123@XZ
	?NotNullStrLen@?$GenericStringRef@D@rapidjson@@AEAAIPEBD@Z
	?Null@?$GenericDocument@U?$UTF8@D@rapidjson@@V?$MemoryPoolAllocator@VCrtAllocator@rapidjson@@@2@VCrtAllocator@2@@rapidjson@@QEAA_NXZ
	?Parse@?$GenericDocument@U?$UTF8@D@rapidjson@@V?$MemoryPoolAllocator@VCrtAllocator@rapidjson@@@2@VCrtAllocator@2@@rapidjson@@QEAAAEAV12@AEBV?$basic_string@DU?$char_traits@D@std@@V?$allocator@D@2@@std@@@Z
	?ParseUint64@BigInteger@internal@rapidjson@@CA_KPEBD0@Z
	?Peek@?$GenericStringStream@U?$UTF8@D@rapidjson@@@rapidjson@@QEBADXZ
	?Peek@?$NumberStream@U?$GenericStringStream@U?$UTF8@D@rapidjson@@@rapidjson@@$0A@$0A@@?$GenericReader@U?$UTF8@D@rapidjson@@U12@VCrtAllocator@2@@rapidjson@@QEBADXZ
	?Pop@?$NumberStream@U?$GenericStringStream@U?$UTF8@D@rapidjson@@@rapidjson@@$0A@$0A@@?$GenericReader@U?$UTF8@D@rapidjson@@U12@VCrtAllocator@2@@rapidjson@@QEAAPEBDXZ
	?Pop@?$StackStream@D@?$GenericReader@U?$UTF8@D@rapidjson@@U12@VCrtAllocator@2@@rapidjson@@QEAAPEADXZ
	?Pow10@internal@rapidjson@@YANH@Z
	?Predict@?$GenericReader@U?$UTF8@D@rapidjson@@U12@VCrtAllocator@2@@rapidjson@@AEBA?AW4IterativeParsingState@12@W4312@W4Token@12@@Z
	?ProcessHeader@jsonParser@@AEAAXAEAV?$GenericValue@U?$UTF8@D@rapidjson@@V?$MemoryPoolAllocator@VCrtAllocator@rapidjson@@@2@@rapidjson@@@Z
	?ProcessMainBody@jsonParser@@AEAAXAEAV?$GenericValue@U?$UTF8@D@rapidjson@@V?$MemoryPoolAllocator@VCrtAllocator@rapidjson@@@2@@rapidjson@@@Z
	?PushBack@BigInteger@internal@rapidjson@@AEAAX_K@Z
	?Put@?$GenericStringStream@U?$UTF8@D@rapidjson@@@rapidjson@@QEAAXD@Z
	?Put@?$StackStream@D@?$GenericReader@U?$UTF8@D@rapidjson@@U12@VCrtAllocator@2@@rapidjson@@QEAAXD@Z
	?PutBegin@?$GenericStringStream@U?$UTF8@D@rapidjson@@@rapidjson@@QEAAPEADXZ
	?PutEnd@?$GenericStringStream@U?$UTF8@D@rapidjson@@@rapidjson@@QEAA_KPEAD@Z
	?RawAssign@?$GenericValue@U?$UTF8@D@rapidjson@@V?$MemoryPoolAllocator@VCrtAllocator@rapidjson@@@2@@rapidjson@@AEAAXAEAV12@@Z
	?RawNumber@?$GenericDocument@U?$UTF8@D@rapidjson@@V?$MemoryPoolAllocator@VCrtAllocator@rapidjson@@@2@VCrtAllocator@2@@rapidjson@@QEAA_NPEBDI_N@Z
	?Realloc@CrtAllocator@rapidjson@@QEAAPEAXPEAX_K1@Z
	?Reload@jsonParser@@QEAAXV?$basic_string@DU?$char_traits@D@std@@V?$allocator@D@2@@std@@PEAV?$vector@VModeType@@V?$allocator@VModeType@@@std@@@3@PEAV?$vector@VActions@@V?$allocator@VActions@@@std@@@3@@Z
	?Resize@?$Stack@VCrtAllocator@rapidjson@@@internal@rapidjson@@AEAAX_K@Z
	?Set@ParseResult@rapidjson@@QEAAXW4ParseErrorCode@2@_K@Z
	?SetArrayRaw@?$GenericValue@U?$UTF8@D@rapidjson@@V?$MemoryPoolAllocator@VCrtAllocator@rapidjson@@@2@@rapidjson@@AEAAXPEAV12@IAEAV?$MemoryPoolAllocator@VCrtAllocator@rapidjson@@@2@@Z
	?SetElementsPointer@?$GenericValue@U?$UTF8@D@rapidjson@@V?$MemoryPoolAllocator@VCrtAllocator@rapidjson@@@2@@rapidjson@@AEAAPEAV12@PEAV12@@Z
	?SetLength@ShortString@?$GenericValue@U?$UTF8@D@rapidjson@@V?$MemoryPoolAllocator@VCrtAllocator@rapidjson@@@2@@rapidjson@@QEAAXI@Z
	?SetMembersPointer@?$GenericValue@U?$UTF8@D@rapidjson@@V?$MemoryPoolAllocator@VCrtAllocator@rapidjson@@@2@@rapidjson@@AEAAPEAV?$GenericMember@U?$UTF8@D@rapidjson@@V?$MemoryPoolAllocator@VCrtAllocator@rapidjson@@@2@@2@PEAV32@@Z
	?SetObjectRaw@?$GenericValue@U?$UTF8@D@rapidjson@@V?$MemoryPoolAllocator@VCrtAllocator@rapidjson@@@2@@rapidjson@@AEAAXPEAV?$GenericMember@U?$UTF8@D@rapidjson@@V?$MemoryPoolAllocator@VCrtAllocator@rapidjson@@@2@@2@IAEAV?$MemoryPoolAllocator@VCrtAllocator@rapidjson@@@2@@Z
	?SetParseError@?$GenericReader@U?$UTF8@D@rapidjson@@U12@VCrtAllocator@2@@rapidjson@@IEAAXW4ParseErrorCode@2@_K@Z
	?SetStringPointer@?$GenericValue@U?$UTF8@D@rapidjson@@V?$MemoryPoolAllocator@VCrtAllocator@rapidjson@@@2@@rapidjson@@AEAAPEBDPEBD@Z
	?SetStringRaw@?$GenericValue@U?$UTF8@D@rapidjson@@V?$MemoryPoolAllocator@VCrtAllocator@rapidjson@@@2@@rapidjson@@AEAAXU?$GenericStringRef@D@2@@Z
	?SetStringRaw@?$GenericValue@U?$UTF8@D@rapidjson@@V?$MemoryPoolAllocator@VCrtAllocator@rapidjson@@@2@@rapidjson@@AEAAXU?$GenericStringRef@D@2@AEAV?$MemoryPoolAllocator@VCrtAllocator@rapidjson@@@2@@Z
	?ShrinkToFit@?$Stack@VCrtAllocator@rapidjson@@@internal@rapidjson@@QEAAXXZ
	?Sign@Double@internal@rapidjson@@QEBA_NXZ
	?Significand@Double@internal@rapidjson@@QEBA_KXZ
	?Size@?$GenericValue@U?$UTF8@D@rapidjson@@V?$MemoryPoolAllocator@VCrtAllocator@rapidjson@@@2@@rapidjson@@QEBAIXZ
	?StartArray@?$GenericDocument@U?$UTF8@D@rapidjson@@V?$MemoryPoolAllocator@VCrtAllocator@rapidjson@@@2@VCrtAllocator@2@@rapidjson@@QEAA_NXZ
	?StartObject@?$GenericDocument@U?$UTF8@D@rapidjson@@V?$MemoryPoolAllocator@VCrtAllocator@rapidjson@@@2@VCrtAllocator@2@@rapidjson@@QEAA_NXZ
	?String@?$GenericDocument@U?$UTF8@D@rapidjson@@V?$MemoryPoolAllocator@VCrtAllocator@rapidjson@@@2@VCrtAllocator@2@@rapidjson@@QEAA_NPEBDI_N@Z
	?StrtodBigInteger@internal@rapidjson@@YANNPEBDHH@Z
	?StrtodDiyFp@internal@rapidjson@@YA_NPEBDHHPEAN@Z
	?StrtodFast@internal@rapidjson@@YA_NNHPEAN@Z
	?StrtodFullPrecision@internal@rapidjson@@YANNHPEBD_K1H@Z
	?StrtodNormalPrecision@internal@rapidjson@@YANNH@Z
	?Take@?$GenericStringStream@U?$UTF8@D@rapidjson@@@rapidjson@@QEAADXZ
	?Take@?$NumberStream@U?$GenericStringStream@U?$UTF8@D@rapidjson@@@rapidjson@@$0A@$0A@@?$GenericReader@U?$UTF8@D@rapidjson@@U12@VCrtAllocator@2@@rapidjson@@QEAADXZ
	?TakePush@?$NumberStream@U?$GenericStringStream@U?$UTF8@D@rapidjson@@@rapidjson@@$0A@$0A@@?$GenericReader@U?$UTF8@D@rapidjson@@U12@VCrtAllocator@2@@rapidjson@@QEAADXZ
	?Tell@?$GenericStringStream@U?$UTF8@D@rapidjson@@@rapidjson@@QEBA_KXZ
	?Tell@?$NumberStream@U?$GenericStringStream@U?$UTF8@D@rapidjson@@@rapidjson@@$0A@$0A@@?$GenericReader@U?$UTF8@D@rapidjson@@U12@VCrtAllocator@2@@rapidjson@@QEAA_KXZ
	?ToDouble@DiyFp@internal@rapidjson@@QEBANXZ
	?Tokenize@?$GenericReader@U?$UTF8@D@rapidjson@@U12@VCrtAllocator@2@@rapidjson@@AEBA?AW4Token@12@D@Z
	?Uint64@?$GenericDocument@U?$UTF8@D@rapidjson@@V?$MemoryPoolAllocator@VCrtAllocator@rapidjson@@@2@VCrtAllocator@2@@rapidjson@@QEAA_N_K@Z
	?Uint@?$GenericDocument@U?$UTF8@D@rapidjson@@V?$MemoryPoolAllocator@VCrtAllocator@rapidjson@@@2@VCrtAllocator@2@@rapidjson@@QEAA_NI@Z
	?Usable@ShortString@?$GenericValue@U?$UTF8@D@rapidjson@@V?$MemoryPoolAllocator@VCrtAllocator@rapidjson@@@2@@rapidjson@@SA_NI@Z
	?Value@Double@internal@rapidjson@@QEBANXZ
	?_Activate_SSO_buffer@?$_String_val@U?$_Simple_types@D@std@@@std@@QEAAXXZ
	?_Adjust_manually_vector_aligned@std@@YAXAEAPEAXAEA_K@Z
	?_Adopt@_Iterator_base12@std@@QEAAXPEBU_Container_base12@2@@Z
	?_Adopt_locked@_Iterator_base12@std@@AEAAXPEBU_Container_base12@2@@Z
	?_Adopt_unlocked@_Iterator_base12@std@@AEAAXPEBU_Container_base12@2@@Z
	?_Allocate@_Default_allocate_traits@std@@SAPEAX_K@Z
	?_Assign_locked@_Iterator_base12@std@@AEAAXAEBU12@@Z
	?_Assign_unlocked@_Iterator_base12@std@@AEAAXAEBU12@@Z
	?_Buy_nonzero@?$vector@V?$basic_string@DU?$char_traits@D@std@@V?$allocator@D@2@@std@@V?$allocator@V?$basic_string@DU?$char_traits@D@std@@V?$allocator@D@2@@std@@@2@@std@@AEAAX_K@Z
	?_Buy_nonzero@?$vector@VActions@@V?$allocator@VActions@@@std@@@std@@AEAAX_K@Z
	?_Buy_nonzero@?$vector@VdevActions@@V?$allocator@VdevActions@@@std@@@std@@AEAAX_K@Z
	?_Buy_raw@?$vector@V?$basic_string@DU?$char_traits@D@std@@V?$allocator@D@2@@std@@V?$allocator@V?$basic_string@DU?$char_traits@D@std@@V?$allocator@D@2@@std@@@2@@std@@AEAAX_K@Z
	?_Buy_raw@?$vector@VActions@@V?$allocator@VActions@@@std@@@std@@AEAAX_K@Z
	?_Buy_raw@?$vector@VdevActions@@V?$allocator@VdevActions@@@std@@@std@@AEAAX_K@Z
	?_Calculate_growth@?$basic_string@DU?$char_traits@D@std@@V?$allocator@D@2@@std@@AEBA_K_K@Z
	?_Calculate_growth@?$basic_string@DU?$char_traits@D@std@@V?$allocator@D@2@@std@@CA_K_K00@Z
	?_Calculate_growth@?$vector@V?$basic_string@DU?$char_traits@D@std@@V?$allocator@D@2@@std@@V?$allocator@V?$basic_string@DU?$char_traits@D@std@@V?$allocator@D@2@@std@@@2@@std@@AEBA_K_K@Z
	?_Calculate_growth@?$vector@VActions@@V?$allocator@VActions@@@std@@@std@@AEBA_K_K@Z
	?_Calculate_growth@?$vector@VKeyValue@@V?$allocator@VKeyValue@@@std@@@std@@AEBA_K_K@Z
	?_Calculate_growth@?$vector@VModeType@@V?$allocator@VModeType@@@std@@@std@@AEBA_K_K@Z
	?_Calculate_growth@?$vector@VdevActions@@V?$allocator@VdevActions@@@std@@@std@@AEBA_K_K@Z
	?_Change_array@?$vector@V?$basic_string@DU?$char_traits@D@std@@V?$allocator@D@2@@std@@V?$allocator@V?$basic_string@DU?$char_traits@D@std@@V?$allocator@D@2@@std@@@2@@std@@AEAAXQEAV?$basic_string@DU?$char_traits@D@std@@V?$allocator@D@2@@2@_K1@Z
	?_Change_array@?$vector@VActions@@V?$allocator@VActions@@@std@@@std@@AEAAXQEAVActions@@_K1@Z
	?_Change_array@?$vector@VKeyValue@@V?$allocator@VKeyValue@@@std@@@std@@AEAAXQEAVKeyValue@@_K1@Z
	?_Change_array@?$vector@VModeType@@V?$allocator@VModeType@@@std@@@std@@AEAAXQEAVModeType@@_K1@Z
	?_Change_array@?$vector@VdevActions@@V?$allocator@VdevActions@@@std@@@std@@AEAAXQEAVdevActions@@_K1@Z
	?_Check_offset@?$_String_val@U?$_Simple_types@D@std@@@std@@QEBAX_K@Z
	?_Clamp_suffix_size@?$_String_val@U?$_Simple_types@D@std@@@std@@QEBA_K_K0@Z
	?_Compat@?$_String_const_iterator@V?$_String_val@U?$_Simple_types@D@std@@@std@@@std@@QEBAXAEBV12@@Z
	?_Compat@?$_Vector_const_iterator@V?$_Vector_val@U?$_Simple_types@V?$basic_string@DU?$char_traits@D@std@@V?$allocator@D@2@@std@@@std@@@std@@@std@@QEBAXAEBV12@@Z
	?_Construct_empty@?$basic_string@DU?$char_traits@D@std@@V?$allocator@D@2@@std@@AEAAXXZ
	?_Deallocate_for_capacity@?$basic_string@DU?$char_traits@D@std@@V?$allocator@D@2@@std@@CAXAEAV?$allocator@D@2@QEAD_K@Z
	?_Endwrite@?$basic_filebuf@DU?$char_traits@D@std@@@std@@IEAA_NXZ
	?_Eos@?$basic_string@DU?$char_traits@D@std@@V?$allocator@D@2@@std@@AEAAX_K@Z
	?_Erase_noexcept@?$basic_string@DU?$char_traits@D@std@@V?$allocator@D@2@@std@@AEAAAEAV12@_K_K@Z
	?_Get_buffer_view@?$basic_stringbuf@DU?$char_traits@D@std@@V?$allocator@D@2@@std@@QEBA?AU_Buffer_view@12@XZ
	?_Get_first@?$_Compressed_pair@U?$default_delete@V_Facet_base@std@@@std@@PEAV_Facet_base@2@$00@std@@QEAAAEAU?$default_delete@V_Facet_base@std@@@2@XZ
	?_Get_first@?$_Compressed_pair@V?$allocator@D@std@@V?$_String_val@U?$_Simple_types@D@std@@@2@$00@std@@QEAAAEAV?$allocator@D@2@XZ
	?_Get_first@?$_Compressed_pair@V?$allocator@D@std@@V?$_String_val@U?$_Simple_types@D@std@@@2@$00@std@@QEBAAEBV?$allocator@D@2@XZ
	?_Get_first@?$_Compressed_pair@V?$allocator@V?$basic_string@DU?$char_traits@D@std@@V?$allocator@D@2@@std@@@std@@V?$_Vector_val@U?$_Simple_types@V?$basic_string@DU?$char_traits@D@std@@V?$allocator@D@2@@std@@@std@@@2@$00@std@@QEAAAEAV?$allocator@V?$basic_string@DU?$char_traits@D@std@@V?$allocator@D@2@@std@@@2@XZ
	?_Get_first@?$_Compressed_pair@V?$allocator@V?$basic_string@DU?$char_traits@D@std@@V?$allocator@D@2@@std@@@std@@V?$_Vector_val@U?$_Simple_types@V?$basic_string@DU?$char_traits@D@std@@V?$allocator@D@2@@std@@@std@@@2@$00@std@@QEBAAEBV?$allocator@V?$basic_string@DU?$char_traits@D@std@@V?$allocator@D@2@@std@@@2@XZ
	?_Get_first@?$_Compressed_pair@V?$allocator@VActions@@@std@@V?$_Vector_val@U?$_Simple_types@VActions@@@std@@@2@$00@std@@QEAAAEAV?$allocator@VActions@@@2@XZ
	?_Get_first@?$_Compressed_pair@V?$allocator@VActions@@@std@@V?$_Vector_val@U?$_Simple_types@VActions@@@std@@@2@$00@std@@QEBAAEBV?$allocator@VActions@@@2@XZ
	?_Get_first@?$_Compressed_pair@V?$allocator@VKeyValue@@@std@@V?$_Vector_val@U?$_Simple_types@VKeyValue@@@std@@@2@$00@std@@QEAAAEAV?$allocator@VKeyValue@@@2@XZ
	?_Get_first@?$_Compressed_pair@V?$allocator@VKeyValue@@@std@@V?$_Vector_val@U?$_Simple_types@VKeyValue@@@std@@@2@$00@std@@QEBAAEBV?$allocator@VKeyValue@@@2@XZ
	?_Get_first@?$_Compressed_pair@V?$allocator@VModeType@@@std@@V?$_Vector_val@U?$_Simple_types@VModeType@@@std@@@2@$00@std@@QEAAAEAV?$allocator@VModeType@@@2@XZ
	?_Get_first@?$_Compressed_pair@V?$allocator@VModeType@@@std@@V?$_Vector_val@U?$_Simple_types@VModeType@@@std@@@2@$00@std@@QEBAAEBV?$allocator@VModeType@@@2@XZ
	?_Get_first@?$_Compressed_pair@V?$allocator@VdevActions@@@std@@V?$_Vector_val@U?$_Simple_types@VdevActions@@@std@@@2@$00@std@@QEAAAEAV?$allocator@VdevActions@@@2@XZ
	?_Get_first@?$_Compressed_pair@V?$allocator@VdevActions@@@std@@V?$_Vector_val@U?$_Simple_types@VdevActions@@@std@@@2@$00@std@@QEBAAEBV?$allocator@VdevActions@@@2@XZ
	?_Getal@?$basic_string@DU?$char_traits@D@std@@V?$allocator@D@2@@std@@AEAAAEAV?$allocator@D@2@XZ
	?_Getal@?$basic_string@DU?$char_traits@D@std@@V?$allocator@D@2@@std@@AEBAAEBV?$allocator@D@2@XZ
	?_Getal@?$vector@V?$basic_string@DU?$char_traits@D@std@@V?$allocator@D@2@@std@@V?$allocator@V?$basic_string@DU?$char_traits@D@std@@V?$allocator@D@2@@std@@@2@@std@@AEAAAEAV?$allocator@V?$basic_string@DU?$char_traits@D@std@@V?$allocator@D@2@@std@@@2@XZ
	?_Getal@?$vector@V?$basic_string@DU?$char_traits@D@std@@V?$allocator@D@2@@std@@V?$allocator@V?$basic_string@DU?$char_traits@D@std@@V?$allocator@D@2@@std@@@2@@std@@AEBAAEBV?$allocator@V?$basic_string@DU?$char_traits@D@std@@V?$allocator@D@2@@std@@@2@XZ
	?_Getal@?$vector@VActions@@V?$allocator@VActions@@@std@@@std@@AEAAAEAV?$allocator@VActions@@@2@XZ
	?_Getal@?$vector@VActions@@V?$allocator@VActions@@@std@@@std@@AEBAAEBV?$allocator@VActions@@@2@XZ
	?_Getal@?$vector@VKeyValue@@V?$allocator@VKeyValue@@@std@@@std@@AEAAAEAV?$allocator@VKeyValue@@@2@XZ
	?_Getal@?$vector@VKeyValue@@V?$allocator@VKeyValue@@@std@@@std@@AEBAAEBV?$allocator@VKeyValue@@@2@XZ
	?_Getal@?$vector@VModeType@@V?$allocator@VModeType@@@std@@@std@@AEAAAEAV?$allocator@VModeType@@@2@XZ
	?_Getal@?$vector@VModeType@@V?$allocator@VModeType@@@std@@@std@@AEBAAEBV?$allocator@VModeType@@@2@XZ
	?_Getal@?$vector@VdevActions@@V?$allocator@VdevActions@@@std@@@std@@AEAAAEAV?$allocator@VdevActions@@@2@XZ
	?_Getal@?$vector@VdevActions@@V?$allocator@VdevActions@@@std@@@std@@AEBAAEBV?$allocator@VdevActions@@@2@XZ
	?_Getcont@_Iterator_base12@std@@QEBAPEBU_Container_base12@2@XZ
	?_Getfacet@locale@std@@QEBAPEBVfacet@12@_K@Z
	?_Getstate@?$basic_stringbuf@DU?$char_traits@D@std@@V?$allocator@D@2@@std@@CAHH@Z
	?_Init@?$basic_filebuf@DU?$char_traits@D@std@@@std@@IEAAXPEAU_iobuf@@W4_Initfl@12@@Z
	?_Initcvt@?$basic_filebuf@DU?$char_traits@D@std@@@std@@IEAAXAEBV?$codecvt@DDU_Mbstatet@@@2@@Z
	?_Large_mode_engaged@?$_String_val@U?$_Simple_types@D@std@@@std@@QEBA_NXZ
	?_Lock@?$basic_filebuf@DU?$char_traits@D@std@@@std@@UEAAXXZ
	?_Maklocwcs@std@@YAPEA_WPEB_W@Z
	?_Myptr@?$_String_val@U?$_Simple_types@D@std@@@std@@QEAAPEADXZ
	?_Myptr@?$_String_val@U?$_Simple_types@D@std@@@std@@QEBAPEBDXZ
	?_Orphan_all@_Container_base12@std@@QEAAXXZ
	?_Orphan_all_locked_v3@_Container_base12@std@@AEAAXXZ
	?_Orphan_all_unlocked_v3@_Container_base12@std@@AEAAXXZ
	?_Orphan_me_locked_v3@_Iterator_base12@std@@AEAAXXZ
	?_Orphan_me_unlocked_v3@_Iterator_base12@std@@AEAAXXZ
	?_Orphan_range@?$vector@V?$basic_string@DU?$char_traits@D@std@@V?$allocator@D@2@@std@@V?$allocator@V?$basic_string@DU?$char_traits@D@std@@V?$allocator@D@2@@std@@@2@@std@@AEBAXPEAV?$basic_string@DU?$char_traits@D@std@@V?$allocator@D@2@@2@0@Z
	?_Orphan_range@?$vector@VActions@@V?$allocator@VActions@@@std@@@std@@AEBAXPEAVActions@@0@Z
	?_Orphan_range@?$vector@VKeyValue@@V?$allocator@VKeyValue@@@std@@@std@@AEBAXPEAVKeyValue@@0@Z
	?_Orphan_range@?$vector@VModeType@@V?$allocator@VModeType@@@std@@@std@@AEBAXPEAVModeType@@0@Z
	?_Orphan_range@?$vector@VdevActions@@V?$allocator@VdevActions@@@std@@@std@@AEBAXPEAVdevActions@@0@Z
	?_Orphan_range_locked@?$vector@V?$basic_string@DU?$char_traits@D@std@@V?$allocator@D@2@@std@@V?$allocator@V?$basic_string@DU?$char_traits@D@std@@V?$allocator@D@2@@std@@@2@@std@@AEBAXPEAV?$basic_string@DU?$char_traits@D@std@@V?$allocator@D@2@@2@0@Z
	?_Orphan_range_locked@?$vector@VActions@@V?$allocator@VActions@@@std@@@std@@AEBAXPEAVActions@@0@Z
	?_Orphan_range_locked@?$vector@VKeyValue@@V?$allocator@VKeyValue@@@std@@@std@@AEBAXPEAVKeyValue@@0@Z
	?_Orphan_range_locked@?$vector@VModeType@@V?$allocator@VModeType@@@std@@@std@@AEBAXPEAVModeType@@0@Z
	?_Orphan_range_locked@?$vector@VdevActions@@V?$allocator@VdevActions@@@std@@@std@@AEBAXPEAVdevActions@@0@Z
	?_Orphan_range_unlocked@?$vector@V?$basic_string@DU?$char_traits@D@std@@V?$allocator@D@2@@std@@V?$allocator@V?$basic_string@DU?$char_traits@D@std@@V?$allocator@D@2@@std@@@2@@std@@AEBAXPEAV?$basic_string@DU?$char_traits@D@std@@V?$allocator@D@2@@2@0@Z
	?_Orphan_range_unlocked@?$vector@VActions@@V?$allocator@VActions@@@std@@@std@@AEBAXPEAVActions@@0@Z
	?_Orphan_range_unlocked@?$vector@VKeyValue@@V?$allocator@VKeyValue@@@std@@@std@@AEBAXPEAVKeyValue@@0@Z
	?_Orphan_range_unlocked@?$vector@VModeType@@V?$allocator@VModeType@@@std@@@std@@AEBAXPEAVModeType@@0@Z
	?_Orphan_range_unlocked@?$vector@VdevActions@@V?$allocator@VdevActions@@@std@@@std@@AEBAXPEAVdevActions@@0@Z
	?_Release@?$_Uninitialized_backout_al@V?$allocator@V?$basic_string@DU?$char_traits@D@std@@V?$allocator@D@2@@std@@@std@@@std@@QEAAPEAV?$basic_string@DU?$char_traits@D@std@@V?$allocator@D@2@@2@XZ
	?_Release@?$_Uninitialized_backout_al@V?$allocator@VActions@@@std@@@std@@QEAAPEAVActions@@XZ
	?_Release@?$_Uninitialized_backout_al@V?$allocator@VKeyValue@@@std@@@std@@QEAAPEAVKeyValue@@XZ
	?_Release@?$_Uninitialized_backout_al@V?$allocator@VModeType@@@std@@@std@@QEAAPEAVModeType@@XZ
	?_Release@?$_Uninitialized_backout_al@V?$allocator@VdevActions@@@std@@@std@@QEAAPEAVdevActions@@XZ
	?_Release@_Basic_container_proxy_ptr12@std@@QEAAXXZ
	?_Reset_back@?$basic_filebuf@DU?$char_traits@D@std@@@std@@AEAAXXZ
	?_Set_back@?$basic_filebuf@DU?$char_traits@D@std@@@std@@AEAAXXZ
	?_Swap_proxy_and_iterators@?$basic_string@DU?$char_traits@D@std@@V?$allocator@D@2@@std@@AEAAXAEAV12@@Z
	?_Swap_proxy_and_iterators@_Container_base12@std@@QEAAXAEAU12@@Z
	?_Swap_proxy_and_iterators_locked@_Container_base12@std@@AEAAXAEAU12@@Z
	?_Swap_proxy_and_iterators_unlocked@_Container_base12@std@@AEAAXAEAU12@@Z
	?_Switch_to_buf@_Bxty@?$_String_val@U?$_Simple_types@D@std@@@std@@QEAAXXZ
	?_Take_contents@?$basic_string@DU?$char_traits@D@std@@V?$allocator@D@2@@std@@AEAAXAEAV12@@Z
	?_Throw_bad_array_new_length@std@@YAXXZ
	?_Throw_bad_cast@std@@YAXXZ
	?_Tidy@?$basic_stringbuf@DU?$char_traits@D@std@@V?$allocator@D@2@@std@@IEAAXXZ
	?_Tidy@?$vector@V?$basic_string@DU?$char_traits@D@std@@V?$allocator@D@2@@std@@V?$allocator@V?$basic_string@DU?$char_traits@D@std@@V?$allocator@D@2@@std@@@2@@std@@AEAAXXZ
	?_Tidy@?$vector@VActions@@V?$allocator@VActions@@@std@@@std@@AEAAXXZ
	?_Tidy@?$vector@VKeyValue@@V?$allocator@VKeyValue@@@std@@@std@@AEAAXXZ
	?_Tidy@?$vector@VdevActions@@V?$allocator@VdevActions@@@std@@@std@@AEAAXXZ
	?_Tidy_deallocate@?$basic_string@DU?$char_traits@D@std@@V?$allocator@D@2@@std@@AEAAXXZ
	?_Unchecked_begin@?$basic_string@DU?$char_traits@D@std@@V?$allocator@D@2@@std@@QEAAPEADXZ
	?_Unchecked_end@?$basic_string@DU?$char_traits@D@std@@V?$allocator@D@2@@std@@QEAAPEADXZ
	?_Unlock@?$basic_filebuf@DU?$char_traits@D@std@@@std@@UEAAXXZ
	?_Xlen_string@std@@YAXXZ
	?_Xlength@?$vector@V?$basic_string@DU?$char_traits@D@std@@V?$allocator@D@2@@std@@V?$allocator@V?$basic_string@DU?$char_traits@D@std@@V?$allocator@D@2@@std@@@2@@std@@CAXXZ
	?_Xlength@?$vector@VActions@@V?$allocator@VActions@@@std@@@std@@CAXXZ
	?_Xlength@?$vector@VKeyValue@@V?$allocator@VKeyValue@@@std@@@std@@CAXXZ
	?_Xlength@?$vector@VModeType@@V?$allocator@VModeType@@@std@@@std@@CAXXZ
	?_Xlength@?$vector@VdevActions@@V?$allocator@VdevActions@@@std@@@std@@CAXXZ
	?_Xran@?$_String_val@U?$_Simple_types@D@std@@@std@@SAXXZ
	?__empty_global_delete@@YAXPEAX@Z
	?__empty_global_delete@@YAXPEAXW4align_val_t@std@@@Z
	?__empty_global_delete@@YAXPEAX_K@Z
	?__empty_global_delete@@YAXPEAX_KW4align_val_t@std@@@Z
	?allocate@?$allocator@D@std@@QEAAPEAD_K@Z
	?allocate@?$allocator@U_Container_proxy@std@@@std@@QEAAPEAU_Container_proxy@2@_K@Z
	?allocate@?$allocator@V?$basic_string@DU?$char_traits@D@std@@V?$allocator@D@2@@std@@@std@@QEAAPEAV?$basic_string@DU?$char_traits@D@std@@V?$allocator@D@2@@2@_K@Z
	?allocate@?$allocator@VActions@@@std@@QEAAPEAVActions@@_K@Z
	?allocate@?$allocator@VKeyValue@@@std@@QEAAPEAVKeyValue@@_K@Z
	?allocate@?$allocator@VModeType@@@std@@QEAAPEAVModeType@@_K@Z
	?allocate@?$allocator@VdevActions@@@std@@QEAAPEAVdevActions@@_K@Z
	?assign@?$_Char_traits@DH@std@@SAXAEADAEBD@Z
	?assign@?$_Narrow_char_traits@DH@std@@SAXAEADAEBD@Z
	?assign@?$basic_string@DU?$char_traits@D@std@@V?$allocator@D@2@@std@@QEAAAEAV12@QEBD@Z
	?assign@?$basic_string@DU?$char_traits@D@std@@V?$allocator@D@2@@std@@QEAAAEAV12@QEBD_K@Z
	?begin@?$basic_string@DU?$char_traits@D@std@@V?$allocator@D@2@@std@@QEAA?AV?$_String_iterator@V?$_String_val@U?$_Simple_types@D@std@@@std@@@2@XZ
	?begin@?$vector@V?$basic_string@DU?$char_traits@D@std@@V?$allocator@D@2@@std@@V?$allocator@V?$basic_string@DU?$char_traits@D@std@@V?$allocator@D@2@@std@@@2@@std@@QEAA?AV?$_Vector_iterator@V?$_Vector_val@U?$_Simple_types@V?$basic_string@DU?$char_traits@D@std@@V?$allocator@D@2@@std@@@std@@@std@@@2@XZ
	?c_str@?$basic_string@DU?$char_traits@D@std@@V?$allocator@D@2@@std@@QEBAPEBDXZ
	?capacity@?$vector@V?$basic_string@DU?$char_traits@D@std@@V?$allocator@D@2@@std@@V?$allocator@V?$basic_string@DU?$char_traits@D@std@@V?$allocator@D@2@@std@@@2@@std@@QEBA_KXZ
	?capacity@?$vector@VActions@@V?$allocator@VActions@@@std@@@std@@QEBA_KXZ
	?capacity@?$vector@VKeyValue@@V?$allocator@VKeyValue@@@std@@@std@@QEBA_KXZ
	?capacity@?$vector@VModeType@@V?$allocator@VModeType@@@std@@@std@@QEBA_KXZ
	?capacity@?$vector@VdevActions@@V?$allocator@VdevActions@@@std@@@std@@QEBA_KXZ
	?clear@?$vector@VActions@@V?$allocator@VActions@@@std@@@std@@QEAAXXZ
	?clear@?$vector@VKeyValue@@V?$allocator@VKeyValue@@@std@@@std@@QEAAXXZ
	?clear@?$vector@VModeType@@V?$allocator@VModeType@@@std@@@std@@QEAAXXZ
	?close@?$basic_filebuf@DU?$char_traits@D@std@@@std@@QEAAPEAV12@XZ
	?clzll@internal@rapidjson@@YAI_K@Z
	?compare@?$_Narrow_char_traits@DH@std@@SAHQEBD0_K@Z
	?compare@?$basic_string@DU?$char_traits@D@std@@V?$allocator@D@2@@std@@QEBAHQEBD@Z
	?copy@?$_Char_traits@DH@std@@SAPEADQEADQEBD_K@Z
	?count@?$duration@_JU?$ratio@$00$0DLJKMKAA@@std@@@chrono@std@@QEBA_JXZ
	?count@?$duration@_JU?$ratio@$00$0DOI@@std@@@chrono@std@@QEBA_JXZ
	?count@?$duration@_JU?$ratio@$00$0PECEA@@std@@@chrono@std@@QEBA_JXZ
	?data@?$basic_string@DU?$char_traits@D@std@@V?$allocator@D@2@@std@@QEAAPEADXZ
	?deallocate@?$_Default_allocator_traits@V?$allocator@U_Container_proxy@std@@@std@@@std@@SAXAEAV?$allocator@U_Container_proxy@std@@@2@QEAU_Container_proxy@2@_K@Z
	?deallocate@?$allocator@D@std@@QEAAXQEAD_K@Z
	?deallocate@?$allocator@U_Container_proxy@std@@@std@@QEAAXQEAU_Container_proxy@2@_K@Z
	?deallocate@?$allocator@V?$basic_string@DU?$char_traits@D@std@@V?$allocator@D@2@@std@@@std@@QEAAXQEAV?$basic_string@DU?$char_traits@D@std@@V?$allocator@D@2@@2@_K@Z
	?deallocate@?$allocator@VActions@@@std@@QEAAXQEAVActions@@_K@Z
	?deallocate@?$allocator@VKeyValue@@@std@@QEAAXQEAVKeyValue@@_K@Z
	?deallocate@?$allocator@VModeType@@@std@@QEAAXQEAVModeType@@_K@Z
	?deallocate@?$allocator@VdevActions@@@std@@QEAAXQEAVdevActions@@_K@Z
	?empty@?$basic_string@DU?$char_traits@D@std@@V?$allocator@D@2@@std@@QEBA_NXZ
	?end@?$basic_string@DU?$char_traits@D@std@@V?$allocator@D@2@@std@@QEAA?AV?$_String_iterator@V?$_String_val@U?$_Simple_types@D@std@@@std@@@2@XZ
	?end@?$vector@V?$basic_string@DU?$char_traits@D@std@@V?$allocator@D@2@@std@@V?$allocator@V?$basic_string@DU?$char_traits@D@std@@V?$allocator@D@2@@std@@@2@@std@@QEAA?AV?$_Vector_iterator@V?$_Vector_val@U?$_Simple_types@V?$basic_string@DU?$char_traits@D@std@@V?$allocator@D@2@@std@@@std@@@std@@@2@XZ
	?eof@?$_Narrow_char_traits@DH@std@@SAHXZ
	?eq@?$_Narrow_char_traits@DH@std@@SA_NDD@Z
	?eq_int_type@?$_Narrow_char_traits@DH@std@@SA_NHH@Z
	?erase@?$basic_string@DU?$char_traits@D@std@@V?$allocator@D@2@@std@@QEAAAEAV12@_K0@Z
	?erase@?$basic_string@DU?$char_traits@D@std@@V?$allocator@D@2@@std@@QEAAAEAV12@_K@Z
	?fillReport@oActions@@IEAAXUnamedKeyCodes@@PEAD@Z
	?find@?$_Narrow_char_traits@DH@std@@SAPEBDQEBD_KAEBD@Z
	?find@?$basic_string@DU?$char_traits@D@std@@V?$allocator@D@2@@std@@QEBA_KD_K@Z
	?find@?$basic_string@DU?$char_traits@D@std@@V?$allocator@D@2@@std@@QEBA_KQEBD_K@Z
	?front@?$basic_string@DU?$char_traits@D@std@@V?$allocator@D@2@@std@@QEAAAEADXZ
	?imbue@?$basic_filebuf@DU?$char_traits@D@std@@@std@@MEAAXAEBVlocale@2@@Z
	?infinity@?$numeric_limits@N@std@@SANXZ
	?is_constant_evaluated@std@@YA_NXZ
	?joystick_fill_report@oActions@@IEAAHQEAD0PEA_N@Z
	?keyboard_send@oActions@@IEAAHVkeyboardActions@@@Z
	?length@?$_Narrow_char_traits@DH@std@@SA_KQEBD@Z
	?lhash@KeySet@@QEAAIPEBD_K@Z
	?loadFile@jsonParser@@AEAA_NXZ
	?max@?$numeric_limits@N@std@@SANXZ
	?max@?$numeric_limits@_J@std@@SA_JXZ
	?max_size@?$_Default_allocator_traits@V?$allocator@D@std@@@std@@SA_KAEBV?$allocator@D@2@@Z
	?max_size@?$_Default_allocator_traits@V?$allocator@V?$basic_string@DU?$char_traits@D@std@@V?$allocator@D@2@@std@@@std@@@std@@SA_KAEBV?$allocator@V?$basic_string@DU?$char_traits@D@std@@V?$allocator@D@2@@std@@@2@@Z
	?max_size@?$_Default_allocator_traits@V?$allocator@VActions@@@std@@@std@@SA_KAEBV?$allocator@VActions@@@2@@Z
	?max_size@?$_Default_allocator_traits@V?$allocator@VKeyValue@@@std@@@std@@SA_KAEBV?$allocator@VKeyValue@@@2@@Z
	?max_size@?$_Default_allocator_traits@V?$allocator@VModeType@@@std@@@std@@SA_KAEBV?$allocator@VModeType@@@2@@Z
	?max_size@?$_Default_allocator_traits@V?$allocator@VdevActions@@@std@@@std@@SA_KAEBV?$allocator@VdevActions@@@2@@Z
	?max_size@?$basic_string@DU?$char_traits@D@std@@V?$allocator@D@2@@std@@QEBA_KXZ
	?max_size@?$vector@V?$basic_string@DU?$char_traits@D@std@@V?$allocator@D@2@@std@@V?$allocator@V?$basic_string@DU?$char_traits@D@std@@V?$allocator@D@2@@std@@@2@@std@@QEBA_KXZ
	?max_size@?$vector@VActions@@V?$allocator@VActions@@@std@@@std@@QEBA_KXZ
	?max_size@?$vector@VKeyValue@@V?$allocator@VKeyValue@@@std@@@std@@QEBA_KXZ
	?max_size@?$vector@VModeType@@V?$allocator@VModeType@@@std@@@std@@QEBA_KXZ
	?max_size@?$vector@VdevActions@@V?$allocator@VdevActions@@@std@@@std@@QEBA_KXZ
	?mouse_fill_report@oActions@@IEAAHQEAD0PEA_N@Z
	?move@?$_Char_traits@DH@std@@SAPEADQEADQEBD_K@Z
	?not_eof@?$_Narrow_char_traits@DH@std@@SAHH@Z
	?now@steady_clock@chrono@std@@SA?AV?$time_point@Usteady_clock@chrono@std@@V?$duration@_JU?$ratio@$00$0DLJKMKAA@@std@@@23@@23@XZ
	?oJoystick@oActions@@UEAAXVjoystickActions@@@Z
	?oKeyboard@oActions@@UEAAXVkeyboardActions@@@Z
	?oMouse@oActions@@UEAAXVmouseActions@@@Z
	?oneKeySet@KeySet@@QEAA?AUnamedKeyCodes@@PEBD_K@Z
	?open@?$basic_filebuf@DU?$char_traits@D@std@@@std@@QEAAPEAV12@PEBDHH@Z
	?overflow@?$basic_filebuf@DU?$char_traits@D@std@@@std@@MEAAHH@Z
	?overflow@?$basic_stringbuf@DU?$char_traits@D@std@@V?$allocator@D@2@@std@@MEAAHH@Z
	?parseIO@jsonParser@@AEAA?AVdevActions@@AEAV?$GenericValue@U?$UTF8@D@rapidjson@@V?$MemoryPoolAllocator@VCrtAllocator@rapidjson@@@2@@rapidjson@@@Z
	?pbackfail@?$basic_filebuf@DU?$char_traits@D@std@@@std@@MEAAHH@Z
	?pbackfail@?$basic_stringbuf@DU?$char_traits@D@std@@V?$allocator@D@2@@std@@MEAAHH@Z
	?pointer_to@?$pointer_traits@PEAD@std@@SAPEADAEAD@Z
	?push_back@?$basic_string@DU?$char_traits@D@std@@V?$allocator@D@2@@std@@QEAAXD@Z
	?push_back@?$vector@V?$basic_string@DU?$char_traits@D@std@@V?$allocator@D@2@@std@@V?$allocator@V?$basic_string@DU?$char_traits@D@std@@V?$allocator@D@2@@std@@@2@@std@@QEAAXAEBV?$basic_string@DU?$char_traits@D@std@@V?$allocator@D@2@@2@@Z
	?push_back@?$vector@VActions@@V?$allocator@VActions@@@std@@@std@@QEAAXAEBVActions@@@Z
	?push_back@?$vector@VKeyValue@@V?$allocator@VKeyValue@@@std@@@std@@QEAAXAEBVKeyValue@@@Z
	?push_back@?$vector@VModeType@@V?$allocator@VModeType@@@std@@@std@@QEAAXAEBVModeType@@@Z
	?push_back@?$vector@VdevActions@@V?$allocator@VdevActions@@@std@@@std@@QEAAX$$QEAVdevActions@@@Z
	?push_back@?$vector@VdevActions@@V?$allocator@VdevActions@@@std@@@std@@QEAAXAEBVdevActions@@@Z
	?quiet_NaN@?$numeric_limits@N@std@@SANXZ
	?rdbuf@?$basic_ifstream@DU?$char_traits@D@std@@@std@@QEBAPEAV?$basic_filebuf@DU?$char_traits@D@std@@@2@XZ
	?release@?$unique_ptr@V_Facet_base@std@@U?$default_delete@V_Facet_base@std@@@2@@std@@QEAAPEAV_Facet_base@2@XZ
	?replace@?$basic_string@DU?$char_traits@D@std@@V?$allocator@D@2@@std@@QEAAAEAV12@_K0AEBV12@@Z
	?replace@?$basic_string@DU?$char_traits@D@std@@V?$allocator@D@2@@std@@QEAAAEAV12@_K_KQEBD0@Z
	?seekoff@?$basic_filebuf@DU?$char_traits@D@std@@@std@@MEAA?AV?$fpos@U_Mbstatet@@@2@_JHH@Z
	?seekoff@?$basic_stringbuf@DU?$char_traits@D@std@@V?$allocator@D@2@@std@@MEAA?AV?$fpos@U_Mbstatet@@@2@_JHH@Z
	?seekpos@?$basic_filebuf@DU?$char_traits@D@std@@@std@@MEAA?AV?$fpos@U_Mbstatet@@@2@V32@H@Z
	?seekpos@?$basic_stringbuf@DU?$char_traits@D@std@@V?$allocator@D@2@@std@@MEAA?AV?$fpos@U_Mbstatet@@@2@V32@H@Z
	?select_on_container_copy_construction@?$_Default_allocator_traits@V?$allocator@D@std@@@std@@SA?AV?$allocator@D@2@AEBV32@@Z
	?select_on_container_copy_construction@?$_Default_allocator_traits@V?$allocator@V?$basic_string@DU?$char_traits@D@std@@V?$allocator@D@2@@std@@@std@@@std@@SA?AV?$allocator@V?$basic_string@DU?$char_traits@D@std@@V?$allocator@D@2@@std@@@2@AEBV32@@Z
	?select_on_container_copy_construction@?$_Default_allocator_traits@V?$allocator@VActions@@@std@@@std@@SA?AV?$allocator@VActions@@@2@AEBV32@@Z
	?select_on_container_copy_construction@?$_Default_allocator_traits@V?$allocator@VdevActions@@@std@@@std@@SA?AV?$allocator@VdevActions@@@2@AEBV32@@Z
	?sendHotKey@oActions@@IEAAXV?$vector@V?$basic_string@DU?$char_traits@D@std@@V?$allocator@D@2@@std@@V?$allocator@V?$basic_string@DU?$char_traits@D@std@@V?$allocator@D@2@@std@@@2@@std@@@Z
	?setbuf@?$basic_filebuf@DU?$char_traits@D@std@@@std@@MEAAPEAV?$basic_streambuf@DU?$char_traits@D@std@@@2@PEAD_J@Z
	?size@?$basic_string@DU?$char_traits@D@std@@V?$allocator@D@2@@std@@QEBA_KXZ
	?state@?$fpos@U_Mbstatet@@@std@@QEBA?AU_Mbstatet@@XZ
	?str@?$basic_stringbuf@DU?$char_traits@D@std@@V?$allocator@D@2@@std@@QEGBA?AV?$basic_string@DU?$char_traits@D@std@@V?$allocator@D@2@@2@XZ
	?str@?$basic_stringstream@DU?$char_traits@D@std@@V?$allocator@D@2@@std@@QEGBA?AV?$basic_string@DU?$char_traits@D@std@@V?$allocator@D@2@@2@XZ
	?substr@?$basic_string@DU?$char_traits@D@std@@V?$allocator@D@2@@std@@QEBA?AV12@_K0@Z
	?sync@?$basic_filebuf@DU?$char_traits@D@std@@@std@@MEAAHXZ
	?time_since_epoch@?$time_point@Usteady_clock@chrono@std@@V?$duration@_JU?$ratio@$00$0DLJKMKAA@@std@@@23@@chrono@std@@QEBA?AV?$duration@_JU?$ratio@$00$0DLJKMKAA@@std@@@23@XZ
	?to_char_type@?$_Narrow_char_traits@DH@std@@SADH@Z
	?to_int_type@?$_Narrow_char_traits@DH@std@@SAHD@Z
	?to_string@std@@YA?AV?$basic_string@DU?$char_traits@D@std@@V?$allocator@D@2@@1@H@Z
	?uflow@?$basic_filebuf@DU?$char_traits@D@std@@@std@@MEAAHXZ
	?underflow@?$basic_filebuf@DU?$char_traits@D@std@@@std@@MEAAHXZ
	?underflow@?$basic_stringbuf@DU?$char_traits@D@std@@V?$allocator@D@2@@std@@MEAAHXZ
	?what@exception@std@@UEBAPEBDXZ
	?words_seperate@oActions@@IEAA?AV?$vector@V?$basic_string@DU?$char_traits@D@std@@V?$allocator@D@2@@std@@V?$allocator@V?$basic_string@DU?$char_traits@D@std@@V?$allocator@D@2@@std@@@2@@std@@V?$basic_string@DU?$char_traits@D@std@@V?$allocator@D@2@@3@@Z
	?xsgetn@?$basic_filebuf@DU?$char_traits@D@std@@@std@@MEAA_JPEAD_J@Z
	?xsputn@?$basic_filebuf@DU?$char_traits@D@std@@@std@@MEAA_JPEBD_J@Z
	wmemcpy
